
build/telosb/main.exe:     file format elf32-msp430


Disassembly of section .text:

00004000 <__watchdog_support>:
    4000:	55 42 20 01 	mov.b	&0x0120,r5	
    4004:	35 d0 08 5a 	bis	#23048,	r5	;#0x5a08
    4008:	82 45 54 13 	mov	r5,	&0x1354	

0000400c <__init_stack>:
    400c:	31 40 00 39 	mov	#14592,	r1	;#0x3900

00004010 <__do_copy_data>:
    4010:	3f 40 30 00 	mov	#48,	r15	;#0x0030
    4014:	0f 93       	tst	r15		
    4016:	08 24       	jz	$+18     	;abs 0x4028
    4018:	92 42 54 13 20 01 	mov	&0x1354,&0x0120	
    401e:	2f 83       	decd	r15		
    4020:	9f 4f b0 a1 00 11 	mov	-24144(r15),4352(r15);0xa1b0(r15), 0x1100(r15)
    4026:	f8 23       	jnz	$-14     	;abs 0x4018

00004028 <__do_clear_bss>:
    4028:	3f 40 24 02 	mov	#548,	r15	;#0x0224
    402c:	0f 93       	tst	r15		
    402e:	07 24       	jz	$+16     	;abs 0x403e
    4030:	92 42 54 13 20 01 	mov	&0x1354,&0x0120	
    4036:	1f 83       	dec	r15		
    4038:	cf 43 30 11 	mov.b	#0,	4400(r15);r3 As==00, 0x1130(r15)
    403c:	f9 23       	jnz	$-12     	;abs 0x4030

0000403e <main>:
    403e:	21 83       	decd	r1		
    4040:	b0 12 46 4c 	call	#0x4c46	
    4044:	47 4f       	mov.b	r15,	r7	
    4046:	3d 40 1b 00 	mov	#27,	r13	;#0x001b
    404a:	3e 40 ff 00 	mov	#255,	r14	;#0x00ff
    404e:	3f 40 92 11 	mov	#4498,	r15	;#0x1192
    4052:	b0 12 a2 94 	call	#0x94a2	
    4056:	f2 43 29 13 	mov.b	#-1,	&0x1329	;r3 As==11
    405a:	f2 43 51 13 	mov.b	#-1,	&0x1351	;r3 As==11
    405e:	b2 40 80 5a 20 01 	mov	#23168,	&0x0120	;#0x5a80
    4064:	a2 42 60 01 	mov	#4,	&0x0160	;r2 As==10
    4068:	82 43 2e 01 	mov	#0,	&0x012e	;r3 As==00
    406c:	a2 42 80 01 	mov	#4,	&0x0180	;r2 As==10
    4070:	82 43 1e 01 	mov	#0,	&0x011e	;r3 As==00
    4074:	b2 40 20 02 60 01 	mov	#544,	&0x0160	;#0x0220
    407a:	b2 40 20 01 80 01 	mov	#288,	&0x0180	;#0x0120
    4080:	f2 40 84 ff 57 00 	mov.b	#-124,	&0x0057	;#0xff84
    4086:	c2 43 58 00 	mov.b	#0,	&0x0058	;r3 As==00
    408a:	b2 40 00 40 82 01 	mov	#16384,	&0x0182	;#0x4000
    4090:	3b 40 0c 00 	mov	#12,	r11	;#0x000c
    4094:	3d 40 00 08 	mov	#2048,	r13	;#0x0800
    4098:	0e 43       	clr	r14		
    409a:	0c 4d       	mov	r13,	r12	
    409c:	0c de       	bis	r14,	r12	
    409e:	59 42 57 00 	mov.b	&0x0057,r9	
    40a2:	0a 4c       	mov	r12,	r10	
    40a4:	8a 10       	swpb	r10		
    40a6:	7a f0 07 00 	and.b	#7,	r10	;#0x0007
    40aa:	79 f0 f8 ff 	and.b	#-8,	r9	;#0xfff8
    40ae:	4a d9       	bis.b	r9,	r10	
    40b0:	c2 4a 57 00 	mov.b	r10,	&0x0057	
    40b4:	c2 4c 56 00 	mov.b	r12,	&0x0056	
    40b8:	79 40 03 00 	mov.b	#3,	r9	;#0x0003
    40bc:	0a 43       	clr	r10		
    40be:	08 43       	clr	r8		
    40c0:	0f 3c       	jmp	$+32     	;abs 0x40e0
    40c2:	18 42 90 01 	mov	&0x0190,r8	
    40c6:	38 52       	add	#8,	r8	;r2 As==11
    40c8:	82 48 92 01 	mov	r8,	&0x0192	
    40cc:	b2 f0 fe ff 82 01 	and	#-2,	&0x0182	;#0xfffe
    40d2:	92 b3 82 01 	bit	#1,	&0x0182	;r3 As==01
    40d6:	fd 27       	jz	$-4      	;abs 0x40d2
    40d8:	1f 42 70 01 	mov	&0x0170,r15	
    40dc:	08 4a       	mov	r10,	r8	
    40de:	0a 4f       	mov	r15,	r10	
    40e0:	79 53       	add.b	#-1,	r9	;r3 As==11
    40e2:	ef 23       	jnz	$-32     	;abs 0x40c2
    40e4:	0a 88       	sub	r8,	r10	
    40e6:	3a 90 01 04 	cmp	#1025,	r10	;#0x0401
    40ea:	01 2c       	jc	$+4      	;abs 0x40ee
    40ec:	0e 4c       	mov	r12,	r14	
    40ee:	0d 11       	rra	r13		
    40f0:	3b 53       	add	#-1,	r11	;r3 As==11
    40f2:	d3 23       	jnz	$-88     	;abs 0x409a
    40f4:	0f 4e       	mov	r14,	r15	
    40f6:	3f f0 e0 00 	and	#224,	r15	;#0x00e0
    40fa:	3f 90 e0 00 	cmp	#224,	r15	;#0x00e0
    40fe:	02 20       	jnz	$+6      	;abs 0x4104
    4100:	3e f0 e0 ff 	and	#-32,	r14	;#0xffe0
    4104:	5c 42 57 00 	mov.b	&0x0057,r12	
    4108:	0d 4e       	mov	r14,	r13	
    410a:	8d 10       	swpb	r13		
    410c:	7d f0 07 00 	and.b	#7,	r13	;#0x0007
    4110:	7c f0 f8 ff 	and.b	#-8,	r12	;#0xfff8
    4114:	4d dc       	bis.b	r12,	r13	
    4116:	c2 4d 57 00 	mov.b	r13,	&0x0057	
    411a:	c2 4e 56 00 	mov.b	r14,	&0x0056	
    411e:	5e 42 57 00 	mov.b	&0x0057,r14	
    4122:	7e f0 07 00 	and.b	#7,	r14	;#0x0007
    4126:	7e d0 80 ff 	bis.b	#-128,	r14	;#0xff80
    412a:	c2 4e 57 00 	mov.b	r14,	&0x0057	
    412e:	e2 42 58 00 	mov.b	#4,	&0x0058	;r2 As==10
    4132:	f2 f0 fd ff 00 00 	and.b	#-3,	&0x0000	;#0xfffd
    4138:	82 43 70 01 	mov	#0,	&0x0170	;r3 As==00
    413c:	b2 40 02 02 60 01 	mov	#514,	&0x0160	;#0x0202
    4142:	82 43 90 01 	mov	#0,	&0x0190	;r3 As==00
    4146:	b2 40 02 01 80 01 	mov	#258,	&0x0180	;#0x0102
    414c:	1e 42 60 01 	mov	&0x0160,r14	
    4150:	3e f0 cf ff 	and	#-49,	r14	;#0xffcf
    4154:	3e d0 20 00 	bis	#32,	r14	;#0x0020
    4158:	82 4e 60 01 	mov	r14,	&0x0160	
    415c:	1e 42 80 01 	mov	&0x0180,r14	
    4160:	3e f0 cf ff 	and	#-49,	r14	;#0xffcf
    4164:	3e d0 20 00 	bis	#32,	r14	;#0x0020
    4168:	82 4e 80 01 	mov	r14,	&0x0180	
    416c:	c2 43 26 00 	mov.b	#0,	&0x0026	;r3 As==00
    4170:	c2 43 2e 00 	mov.b	#0,	&0x002e	;r3 As==00
    4174:	c2 43 1b 00 	mov.b	#0,	&0x001b	;r3 As==00
    4178:	c2 43 1f 00 	mov.b	#0,	&0x001f	;r3 As==00
    417c:	c2 43 33 00 	mov.b	#0,	&0x0033	;r3 As==00
    4180:	c2 43 37 00 	mov.b	#0,	&0x0037	;r3 As==00
    4184:	c2 43 21 00 	mov.b	#0,	&0x0021	;r3 As==00
    4188:	f2 40 e0 ff 22 00 	mov.b	#-32,	&0x0022	;#0xffe0
    418e:	f2 40 30 00 29 00 	mov.b	#48,	&0x0029	;#0x0030
    4194:	f2 40 7b 00 2a 00 	mov.b	#123,	&0x002a	;#0x007b
    419a:	c2 43 19 00 	mov.b	#0,	&0x0019	;r3 As==00
    419e:	f2 40 f1 ff 1a 00 	mov.b	#-15,	&0x001a	;#0xfff1
    41a4:	f2 40 dd ff 1d 00 	mov.b	#-35,	&0x001d	;#0xffdd
    41aa:	f2 40 fd ff 1e 00 	mov.b	#-3,	&0x001e	;#0xfffd
    41b0:	f2 43 31 00 	mov.b	#-1,	&0x0031	;r3 As==11
    41b4:	f2 43 32 00 	mov.b	#-1,	&0x0032	;r3 As==11
    41b8:	c2 43 35 00 	mov.b	#0,	&0x0035	;r3 As==00
    41bc:	f2 43 36 00 	mov.b	#-1,	&0x0036	;r3 As==11
    41c0:	c2 43 25 00 	mov.b	#0,	&0x0025	;r3 As==00
    41c4:	c2 43 2d 00 	mov.b	#0,	&0x002d	;r3 As==00
    41c8:	1f 42 70 01 	mov	&0x0170,r15	
    41cc:	1e 42 70 01 	mov	&0x0170,r14	
    41d0:	0e 8f       	sub	r15,	r14	
    41d2:	3e 90 01 28 	cmp	#10241,	r14	;#0x2801
    41d6:	fa 2b       	jnc	$-10     	;abs 0x41cc
    41d8:	e2 d3 1a 00 	bis.b	#2,	&0x001a	;r3 As==10
    41dc:	f2 d2 1a 00 	bis.b	#8,	&0x001a	;r2 As==11
    41e0:	f2 d0 80 ff 1e 00 	bis.b	#-128,	&0x001e	;#0xff80
    41e6:	f2 d0 10 00 1e 00 	bis.b	#16,	&0x001e	;#0x0010
    41ec:	f2 d0 80 ff 1d 00 	bis.b	#-128,	&0x001d	;#0xff80
    41f2:	f2 d0 10 00 1d 00 	bis.b	#16,	&0x001d	;#0x0010
    41f8:	03 43       	nop			
    41fa:	03 43       	nop			
    41fc:	f2 f0 ef ff 1d 00 	and.b	#-17,	&0x001d	;#0xffef
    4202:	f2 f0 f7 ff 19 00 	and.b	#-9,	&0x0019	;#0xfff7
    4208:	5f 43       	mov.b	#1,	r15	;r3 As==01
    420a:	b0 12 b0 46 	call	#0x46b0	
    420e:	4f 43       	clr.b	r15		
    4210:	b0 12 b0 46 	call	#0x46b0	
    4214:	5f 43       	mov.b	#1,	r15	;r3 As==01
    4216:	b0 12 b0 46 	call	#0x46b0	
    421a:	5f 43       	mov.b	#1,	r15	;r3 As==01
    421c:	b0 12 b0 46 	call	#0x46b0	
    4220:	5f 43       	mov.b	#1,	r15	;r3 As==01
    4222:	b0 12 b0 46 	call	#0x46b0	
    4226:	4f 43       	clr.b	r15		
    4228:	b0 12 b0 46 	call	#0x46b0	
    422c:	4f 43       	clr.b	r15		
    422e:	b0 12 b0 46 	call	#0x46b0	
    4232:	5f 43       	mov.b	#1,	r15	;r3 As==01
    4234:	b0 12 b0 46 	call	#0x46b0	
    4238:	f2 d0 10 00 1d 00 	bis.b	#16,	&0x001d	;#0x0010
    423e:	f2 d2 19 00 	bis.b	#8,	&0x0019	;r2 As==11
    4242:	e2 d3 19 00 	bis.b	#2,	&0x0019	;r3 As==10
    4246:	f2 d0 10 00 32 00 	bis.b	#16,	&0x0032	;#0x0010
    424c:	f2 d0 20 00 32 00 	bis.b	#32,	&0x0032	;#0x0020
    4252:	f2 d0 40 00 32 00 	bis.b	#64,	&0x0032	;#0x0040
    4258:	f2 d0 10 00 31 00 	bis.b	#16,	&0x0031	;#0x0010
    425e:	f2 d0 20 00 31 00 	bis.b	#32,	&0x0031	;#0x0020
    4264:	f2 d0 40 00 31 00 	bis.b	#64,	&0x0031	;#0x0040
    426a:	b0 12 a0 7d 	call	#0x7da0	
    426e:	4f 93       	tst.b	r15		
    4270:	fc 23       	jnz	$-6      	;abs 0x426a
    4272:	f2 43 bc 11 	mov.b	#-1,	&0x11bc	;r3 As==11
    4276:	b2 43 6e 11 	mov	#-1,	&0x116e	;r3 As==11
    427a:	c2 43 70 11 	mov.b	#0,	&0x1170	;r3 As==00
    427e:	b2 43 72 11 	mov	#-1,	&0x1172	;r3 As==11
    4282:	c2 43 74 11 	mov.b	#0,	&0x1174	;r3 As==00
    4286:	b2 43 76 11 	mov	#-1,	&0x1176	;r3 As==11
    428a:	c2 43 78 11 	mov.b	#0,	&0x1178	;r3 As==00
    428e:	b2 43 7a 11 	mov	#-1,	&0x117a	;r3 As==11
    4292:	c2 43 7c 11 	mov.b	#0,	&0x117c	;r3 As==00
    4296:	b0 12 60 45 	call	#0x4560	
    429a:	c2 4f c8 12 	mov.b	r15,	&0x12c8	
    429e:	1f 42 2e 11 	mov	&0x112e,r15	
    42a2:	1f 53       	inc	r15		
    42a4:	82 4f d8 11 	mov	r15,	&0x11d8	
    42a8:	82 43 da 11 	mov	#0,	&0x11da	;r3 As==00
    42ac:	b2 40 f4 12 62 11 	mov	#4852,	&0x1162	;#0x12f4
    42b2:	f2 f0 ef ff 22 00 	and.b	#-17,	&0x0022	;#0xffef
    42b8:	e2 d2 1e 00 	bis.b	#4,	&0x001e	;r2 As==10
    42bc:	f2 f0 fd ff 1e 00 	and.b	#-3,	&0x001e	;#0xfffd
    42c2:	b2 f0 ef ff 88 01 	and	#-17,	&0x0188	;#0xffef
    42c8:	b2 40 00 40 88 01 	mov	#16384,	&0x0188	;#0x4000
    42ce:	f2 43 c6 11 	mov.b	#-1,	&0x11c6	;r3 As==11
    42d2:	c2 43 74 12 	mov.b	#0,	&0x1274	;r3 As==00
    42d6:	c2 43 75 12 	mov.b	#0,	&0x1275	;r3 As==00
    42da:	c2 43 76 12 	mov.b	#0,	&0x1276	;r3 As==00
    42de:	c2 43 77 12 	mov.b	#0,	&0x1277	;r3 As==00
    42e2:	e2 d2 1e 00 	bis.b	#4,	&0x001e	;r2 As==10
    42e6:	f2 d0 40 00 1e 00 	bis.b	#64,	&0x001e	;#0x0040
    42ec:	f2 d0 20 00 1e 00 	bis.b	#32,	&0x001e	;#0x0020
    42f2:	b0 12 46 4c 	call	#0x4c46	
    42f6:	1b 42 06 11 	mov	&0x1106,r11	
    42fa:	b0 12 58 4c 	call	#0x4c58	
    42fe:	82 4b ee 11 	mov	r11,	&0x11ee	
    4302:	b0 12 32 47 	call	#0x4732	
    4306:	82 4c 88 12 	mov	r12,	&0x1288	
    430a:	82 4d 8a 12 	mov	r13,	&0x128a	
    430e:	82 4e 8c 12 	mov	r14,	&0x128c	
    4312:	82 4f 8e 12 	mov	r15,	&0x128e	
    4316:	d2 42 04 11 d0 11 	mov.b	&0x1104,&0x11d0	
    431c:	c2 43 d1 11 	mov.b	#0,	&0x11d1	;r3 As==00
    4320:	f2 40 1f 00 72 12 	mov.b	#31,	&0x1272	;#0x001f
    4326:	f2 40 18 00 c6 12 	mov.b	#24,	&0x12c6	;#0x0018
    432c:	b0 12 32 47 	call	#0x4732	
    4330:	82 4c 88 12 	mov	r12,	&0x1288	
    4334:	82 4d 8a 12 	mov	r13,	&0x128a	
    4338:	82 4e 8c 12 	mov	r14,	&0x128c	
    433c:	82 4f 8e 12 	mov	r15,	&0x128e	
    4340:	3e 40 88 12 	mov	#4744,	r14	;#0x1288
    4344:	0d 4e       	mov	r14,	r13	
    4346:	3d 50 07 00 	add	#7,	r13	;#0x0007
    434a:	0c 43       	clr	r12		
    434c:	6f 4e       	mov.b	@r14,	r15	
    434e:	ee 4d 00 00 	mov.b	@r13,	0(r14)	;0x0000(r14)
    4352:	cd 4f 00 00 	mov.b	r15,	0(r13)	;0x0000(r13)
    4356:	1c 53       	inc	r12		
    4358:	1e 53       	inc	r14		
    435a:	3d 53       	add	#-1,	r13	;r3 As==11
    435c:	2c 92       	cmp	#4,	r12	;r2 As==10
    435e:	f6 23       	jnz	$-18     	;abs 0x434c
    4360:	d2 43 b4 11 	mov.b	#1,	&0x11b4	;r3 As==01
    4364:	c2 43 44 13 	mov.b	#0,	&0x1344	;r3 As==00
    4368:	d2 43 d3 11 	mov.b	#1,	&0x11d3	;r3 As==01
    436c:	c2 43 82 12 	mov.b	#0,	&0x1282	;r3 As==00
    4370:	b2 40 88 11 2a 13 	mov	#4488,	&0x132a	;#0x1188
    4376:	b2 40 8a 11 2c 13 	mov	#4490,	&0x132c	;#0x118a
    437c:	c2 43 0a 12 	mov.b	#0,	&0x120a	;r3 As==00
    4380:	b0 12 f0 45 	call	#0x45f0	
    4384:	82 43 a8 01 	mov	#0,	&0x01a8	;r3 As==00
    4388:	82 43 a4 01 	mov	#0,	&0x01a4	;r3 As==00
    438c:	b0 12 ea 45 	call	#0x45ea	
    4390:	3f d0 0c 00 	bis	#12,	r15	;#0x000c
    4394:	b0 12 e4 45 	call	#0x45e4	
    4398:	f2 43 36 13 	mov.b	#-1,	&0x1336	;r3 As==11
    439c:	f2 43 37 13 	mov.b	#-1,	&0x1337	;r3 As==11
    43a0:	b2 f0 ef ff 82 01 	and	#-17,	&0x0182	;#0xffef
    43a6:	b2 40 00 40 82 01 	mov	#16384,	&0x0182	;#0x4000
    43ac:	f2 43 e8 11 	mov.b	#-1,	&0x11e8	;r3 As==11
    43b0:	c2 93 5c 11 	tst.b	&0x115c	
    43b4:	14 20       	jnz	$+42     	;abs 0x43de
    43b6:	e2 43 5c 11 	mov.b	#2,	&0x115c	;r3 As==10
    43ba:	c2 43 90 12 	mov.b	#0,	&0x1290	;r3 As==00
    43be:	d2 93 20 11 	cmp.b	#1,	&0x1120	;r3 As==01
    43c2:	05 20       	jnz	$+12     	;abs 0x43ce
    43c4:	c2 43 20 11 	mov.b	#0,	&0x1120	;r3 As==00
    43c8:	f2 40 03 00 5c 11 	mov.b	#3,	&0x115c	;#0x0003
    43ce:	c2 93 20 11 	tst.b	&0x1120	
    43d2:	03 20       	jnz	$+8      	;abs 0x43da
    43d4:	b0 12 56 68 	call	#0x6856	
    43d8:	02 3c       	jmp	$+6      	;abs 0x43de
    43da:	c2 43 5c 11 	mov.b	#0,	&0x115c	;r3 As==00
    43de:	b0 12 a0 7d 	call	#0x7da0	
    43e2:	4f 93       	tst.b	r15		
    43e4:	fc 23       	jnz	$-6      	;abs 0x43de
    43e6:	4f 47       	mov.b	r7,	r15	
    43e8:	b0 12 58 4c 	call	#0x4c58	
    43ec:	32 d2       	eint			
    43ee:	3d 40 f4 01 	mov	#500,	r13	;#0x01f4
    43f2:	0e 43       	clr	r14		
    43f4:	4f 43       	clr.b	r15		
    43f6:	b0 12 34 55 	call	#0x5534	
    43fa:	3d 40 e8 03 	mov	#1000,	r13	;#0x03e8
    43fe:	0e 43       	clr	r14		
    4400:	5f 43       	mov.b	#1,	r15	;r3 As==01
    4402:	b0 12 34 55 	call	#0x5534	
    4406:	b0 12 46 4c 	call	#0x4c46	
    440a:	4a 4f       	mov.b	r15,	r10	
    440c:	86 3c       	jmp	$+270    	;abs 0x451a
    440e:	c2 93 21 11 	tst.b	&0x1121	
    4412:	77 24       	jz	$+240    	;abs 0x4502
    4414:	b2 b0 10 00 62 01 	bit	#16,	&0x0162	;#0x0010
    441a:	08 20       	jnz	$+18     	;abs 0x442c
    441c:	b2 b0 10 00 64 01 	bit	#16,	&0x0164	;#0x0010
    4422:	04 20       	jnz	$+10     	;abs 0x442c
    4424:	b2 b0 10 00 66 01 	bit	#16,	&0x0166	;#0x0010
    442a:	07 24       	jz	$+16     	;abs 0x443a
    442c:	1e 42 60 01 	mov	&0x0160,r14	
    4430:	3e f0 00 03 	and	#768,	r14	;#0x0300
    4434:	3e 90 00 02 	cmp	#512,	r14	;#0x0200
    4438:	2e 24       	jz	$+94     	;abs 0x4496
    443a:	5f 42 04 00 	mov.b	&0x0004,r15	
    443e:	3f b0 c0 00 	bit	#192,	r15	;#0x00c0
    4442:	05 24       	jz	$+12     	;abs 0x444e
    4444:	5f 42 71 00 	mov.b	&0x0071,r15	
    4448:	3f f0 20 00 	and	#32,	r15	;#0x0020
    444c:	26 20       	jnz	$+78     	;abs 0x449a
    444e:	5f 42 05 00 	mov.b	&0x0005,r15	
    4452:	3f b0 30 00 	bit	#48,	r15	;#0x0030
    4456:	05 24       	jz	$+12     	;abs 0x4462
    4458:	5f 42 79 00 	mov.b	&0x0079,r15	
    445c:	3f f0 20 00 	and	#32,	r15	;#0x0020
    4460:	1e 20       	jnz	$+62     	;abs 0x449e
    4462:	5f 42 70 00 	mov.b	&0x0070,r15	
    4466:	1f f3       	and	#1,	r15	;r3 As==01
    4468:	1c 24       	jz	$+58     	;abs 0x44a2
    446a:	5f 42 71 00 	mov.b	&0x0071,r15	
    446e:	3f f0 20 00 	and	#32,	r15	;#0x0020
    4472:	1a 24       	jz	$+54     	;abs 0x44a8
    4474:	5f 42 72 00 	mov.b	&0x0072,r15	
    4478:	3f f0 20 00 	and	#32,	r15	;#0x0020
    447c:	18 24       	jz	$+50     	;abs 0x44ae
    447e:	5f 42 70 00 	mov.b	&0x0070,r15	
    4482:	2f f2       	and	#4,	r15	;r2 As==10
    4484:	17 24       	jz	$+48     	;abs 0x44b4
    4486:	5f 42 70 00 	mov.b	&0x0070,r15	
    448a:	3f f0 20 00 	and	#32,	r15	;#0x0020
    448e:	15 20       	jnz	$+44     	;abs 0x44ba
    4490:	7e 40 05 00 	mov.b	#5,	r14	;#0x0005
    4494:	13 3c       	jmp	$+40     	;abs 0x44bc
    4496:	6e 43       	mov.b	#2,	r14	;r3 As==10
    4498:	11 3c       	jmp	$+36     	;abs 0x44bc
    449a:	6e 43       	mov.b	#2,	r14	;r3 As==10
    449c:	0f 3c       	jmp	$+32     	;abs 0x44bc
    449e:	6e 43       	mov.b	#2,	r14	;r3 As==10
    44a0:	0d 3c       	jmp	$+28     	;abs 0x44bc
    44a2:	7e 40 05 00 	mov.b	#5,	r14	;#0x0005
    44a6:	0a 3c       	jmp	$+22     	;abs 0x44bc
    44a8:	7e 40 05 00 	mov.b	#5,	r14	;#0x0005
    44ac:	07 3c       	jmp	$+16     	;abs 0x44bc
    44ae:	7e 40 05 00 	mov.b	#5,	r14	;#0x0005
    44b2:	04 3c       	jmp	$+10     	;abs 0x44bc
    44b4:	7e 40 05 00 	mov.b	#5,	r14	;#0x0005
    44b8:	01 3c       	jmp	$+4      	;abs 0x44bc
    44ba:	6e 43       	mov.b	#2,	r14	;r3 As==10
    44bc:	b2 b0 10 00 a0 01 	bit	#16,	&0x01a0	;#0x0010
    44c2:	19 24       	jz	$+52     	;abs 0x44f6
    44c4:	b2 b0 10 00 a2 01 	bit	#16,	&0x01a2	;#0x0010
    44ca:	05 24       	jz	$+12     	;abs 0x44d6
    44cc:	b2 b2 a2 01 	bit	#8,	&0x01a2	;r2 As==11
    44d0:	0f 24       	jz	$+32     	;abs 0x44f0
    44d2:	6e 43       	mov.b	#2,	r14	;r3 As==10
    44d4:	10 3c       	jmp	$+34     	;abs 0x44f6
    44d6:	1f 42 a2 01 	mov	&0x01a2,r15	
    44da:	3f b0 00 04 	bit	#1024,	r15	;#0x0400
    44de:	0b 24       	jz	$+24     	;abs 0x44f6
    44e0:	1d 42 60 01 	mov	&0x0160,r13	
    44e4:	3d f0 00 03 	and	#768,	r13	;#0x0300
    44e8:	3d 90 00 02 	cmp	#512,	r13	;#0x0200
    44ec:	04 20       	jnz	$+10     	;abs 0x44f6
    44ee:	02 3c       	jmp	$+6      	;abs 0x44f4
    44f0:	4e 43       	clr.b	r14		
    44f2:	01 3c       	jmp	$+4      	;abs 0x44f6
    44f4:	6e 43       	mov.b	#2,	r14	;r3 As==10
    44f6:	7e 90 05 00 	cmp.b	#5,	r14	;#0x0005
    44fa:	01 28       	jnc	$+4      	;abs 0x44fe
    44fc:	6e 42       	mov.b	#4,	r14	;r2 As==10
    44fe:	c2 4e 60 11 	mov.b	r14,	&0x1160	
    4502:	5e 42 60 11 	mov.b	&0x1160,r14	
    4506:	0e 5e       	rla	r14		
    4508:	1e 4e 7c a0 	mov	-24452(r14),r14	;0xa07c(r14)
    450c:	3e d2       	bis	#8,	r14	;r2 As==11
    450e:	81 4e 00 00 	mov	r14,	0(r1)	;0x0000(r1)
    4512:	22 d1       	bis	@r1,	r2	
    4514:	32 c2       	dint			
    4516:	03 43       	nop			
    4518:	03 43       	nop			
    451a:	f2 93 29 13 	cmp.b	#-1,	&0x1329	;r3 As==11
    451e:	77 27       	jz	$-272    	;abs 0x440e
    4520:	b0 12 70 4a 	call	#0x4a70	
    4524:	4b 4f       	mov.b	r15,	r11	
    4526:	7f 93       	cmp.b	#-1,	r15	;r3 As==11
    4528:	72 27       	jz	$-282    	;abs 0x440e
    452a:	4f 4a       	mov.b	r10,	r15	
    452c:	b0 12 58 4c 	call	#0x4c58	
    4530:	4f 4b       	mov.b	r11,	r15	
    4532:	b0 12 b0 73 	call	#0x73b0	
    4536:	67 3f       	jmp	$-304    	;abs 0x4406

00004538 <__stop_progExec__>:
    4538:	32 d0 f0 00 	bis	#240,	r2	;#0x00f0
    453c:	fd 3f       	jmp	$-4      	;abs 0x4538

0000453e <__ctors_end>:
    453e:	30 40 7c 9e 	br	#0x9e7c	

00004542 <Msp430Adc12ImplP__TimerA__setMode>:
    4542:	3d 40 60 01 	mov	#352,	r13	;#0x0160
    4546:	2e 4d       	mov	@r13,	r14	
    4548:	0f 5f       	rla	r15		
    454a:	0f 5f       	rla	r15		
    454c:	0f 5f       	rla	r15		
    454e:	0f 5f       	rla	r15		
    4550:	3f f0 30 00 	and	#48,	r15	;#0x0030
    4554:	3e f0 cf ff 	and	#-49,	r14	;#0xffcf
    4558:	0f de       	bis	r14,	r15	
    455a:	8d 4f 00 00 	mov	r15,	0(r13)	;0x0000(r13)
    455e:	30 41       	ret			

00004560 <RandomMlcgC__Random__rand16>:
    4560:	0b 12       	push	r11		
    4562:	0a 12       	push	r10		
    4564:	09 12       	push	r9		
    4566:	08 12       	push	r8		
    4568:	07 12       	push	r7		
    456a:	06 12       	push	r6		
    456c:	3c 40 4e 83 	mov	#-31922,r12	;#0x834e
    4570:	0d 43       	clr	r13		
    4572:	1e 42 d8 11 	mov	&0x11d8,r14	
    4576:	1f 42 da 11 	mov	&0x11da,r15	
    457a:	b0 12 bc 86 	call	#0x86bc	
    457e:	07 4d       	mov	r13,	r7	
    4580:	08 4e       	mov	r14,	r8	
    4582:	09 4f       	mov	r15,	r9	
    4584:	0e 4c       	mov	r12,	r14	
    4586:	0f 47       	mov	r7,	r15	
    4588:	12 c3       	clrc			
    458a:	0f 10       	rrc	r15		
    458c:	0e 10       	rrc	r14		
    458e:	08 5e       	add	r14,	r8	
    4590:	09 6f       	addc	r15,	r9	
    4592:	09 93       	tst	r9		
    4594:	05 34       	jge	$+12     	;abs 0x45a0
    4596:	38 f3       	and	#-1,	r8	;r3 As==11
    4598:	39 f0 ff 7f 	and	#32767,	r9	;#0x7fff
    459c:	18 53       	inc	r8		
    459e:	09 63       	adc	r9		
    45a0:	82 48 d8 11 	mov	r8,	&0x11d8	
    45a4:	82 49 da 11 	mov	r9,	&0x11da	
    45a8:	0f 48       	mov	r8,	r15	
    45aa:	36 41       	pop	r6		
    45ac:	37 41       	pop	r7		
    45ae:	38 41       	pop	r8		
    45b0:	39 41       	pop	r9		
    45b2:	3a 41       	pop	r10		
    45b4:	3b 41       	pop	r11		
    45b6:	30 41       	ret			

000045b8 <CC2420SpiP__SpiByte__write>:
    45b8:	c2 4f 77 00 	mov.b	r15,	&0x0077	
    45bc:	5f 42 02 00 	mov.b	&0x0002,r15	
    45c0:	3f f0 40 00 	and	#64,	r15	;#0x0040
    45c4:	fb 27       	jz	$-8      	;abs 0x45bc
    45c6:	f2 f0 bf ff 02 00 	and.b	#-65,	&0x0002	;#0xffbf
    45cc:	5f 42 76 00 	mov.b	&0x0076,r15	
    45d0:	30 41       	ret			

000045d2 <Msp430RefVoltGeneratorP__HplAdc12__getCtl0>:
    45d2:	1f 42 a0 01 	mov	&0x01a0,r15	
    45d6:	30 41       	ret			

000045d8 <Msp430RefVoltGeneratorP__HplAdc12__setCtl0>:
    45d8:	82 4f a0 01 	mov	r15,	&0x01a0	
    45dc:	30 41       	ret			

000045de <Msp430Adc12ImplP__HplAdc12__setCtl1>:
    45de:	82 4f a2 01 	mov	r15,	&0x01a2	
    45e2:	30 41       	ret			

000045e4 <Msp430Adc12ImplP__HplAdc12__setCtl0>:
    45e4:	82 4f a0 01 	mov	r15,	&0x01a0	
    45e8:	30 41       	ret			

000045ea <Msp430Adc12ImplP__HplAdc12__getCtl0>:
    45ea:	1f 42 a0 01 	mov	&0x01a0,r15	
    45ee:	30 41       	ret			

000045f0 <Msp430Adc12ImplP__HplAdc12__stopConversion>:
    45f0:	1f 42 a2 01 	mov	&0x01a2,r15	
    45f4:	b2 f0 f9 ff a2 01 	and	#-7,	&0x01a2	;#0xfff9
    45fa:	b2 f0 fc ff a0 01 	and	#-4,	&0x01a0	;#0xfffc
    4600:	b2 f0 ef ff a0 01 	and	#-17,	&0x01a0	;#0xffef
    4606:	1e 42 a2 01 	mov	&0x01a2,r14	
    460a:	3f f0 06 00 	and	#6,	r15	;#0x0006
    460e:	0f de       	bis	r14,	r15	
    4610:	82 4f a2 01 	mov	r15,	&0x01a2	
    4614:	30 41       	ret			

00004616 <OneWireMasterP__BusyWait__wait>:
    4616:	1e 42 70 01 	mov	&0x0170,r14	
    461a:	3f 90 01 80 	cmp	#-32767,r15	;#0x8001
    461e:	0a 28       	jnc	$+22     	;abs 0x4634
    4620:	3f 50 00 80 	add	#-32768,r15	;#0x8000
    4624:	1d 42 70 01 	mov	&0x0170,r13	
    4628:	0d 8e       	sub	r14,	r13	
    462a:	0f 9d       	cmp	r13,	r15	
    462c:	fb 2f       	jc	$-8      	;abs 0x4624
    462e:	0e 5f       	add	r15,	r14	
    4630:	3f 40 00 80 	mov	#-32768,r15	;#0x8000
    4634:	1d 42 70 01 	mov	&0x0170,r13	
    4638:	0d 8e       	sub	r14,	r13	
    463a:	0f 9d       	cmp	r13,	r15	
    463c:	fb 2f       	jc	$-8      	;abs 0x4634
    463e:	30 41       	ret			

00004640 <OneWireMasterP__Pin__makeInput>:
    4640:	f2 f0 ef ff 2a 00 	and.b	#-17,	&0x002a	;#0xffef
    4646:	30 41       	ret			

00004648 <OneWireMasterP__Pin__makeOutput>:
    4648:	f2 d0 10 00 2a 00 	bis.b	#16,	&0x002a	;#0x0010
    464e:	30 41       	ret			

00004650 <Msp430Adc12ImplP__HplAdc12__setMCtl>:
    4650:	4f 4f       	mov.b	r15,	r15	
    4652:	3f 50 80 00 	add	#128,	r15	;#0x0080
    4656:	4e 4e       	mov.b	r14,	r14	
    4658:	cf 4e 00 00 	mov.b	r14,	0(r15)	;0x0000(r15)
    465c:	30 41       	ret			

0000465e <Msp430Adc12ImplP__HplAdc12__getMCtl>:
    465e:	4f 4f       	mov.b	r15,	r15	
    4660:	3f 50 80 00 	add	#128,	r15	;#0x0080
    4664:	6f 4f       	mov.b	@r15,	r15	
    4666:	30 41       	ret			

00004668 <Msp430TimerP__1__Timer__get>:
    4668:	1f 42 90 01 	mov	&0x0190,r15	
    466c:	01 3c       	jmp	$+4      	;abs 0x4670
    466e:	0f 4e       	mov	r14,	r15	
    4670:	1e 42 90 01 	mov	&0x0190,r14	
    4674:	0f 9e       	cmp	r14,	r15	
    4676:	fb 23       	jnz	$-8      	;abs 0x466e
    4678:	30 41       	ret			

0000467a <GpioCaptureC__0__enableCapture>:
    467a:	b2 f0 ef ff 84 01 	and	#-17,	&0x0184	;#0xffef
    4680:	e2 d3 1f 00 	bis.b	#2,	&0x001f	;r3 As==10
    4684:	b2 f0 fe ff 84 01 	and	#-2,	&0x0184	;#0xfffe
    468a:	b2 f0 fd ff 84 01 	and	#-3,	&0x0184	;#0xfffd
    4690:	4f 4f       	mov.b	r15,	r15	
    4692:	8f 10       	swpb	r15		
    4694:	7e 40 06 00 	mov.b	#6,	r14	;#0x0006
    4698:	0f 5f       	rla	r15		
    469a:	7e 53       	add.b	#-1,	r14	;r3 As==11
    469c:	fd 23       	jnz	$-4      	;abs 0x4698
    469e:	3f d0 00 01 	bis	#256,	r15	;#0x0100
    46a2:	82 4f 84 01 	mov	r15,	&0x0184	
    46a6:	b2 d0 10 00 84 01 	bis	#16,	&0x0184	;#0x0010
    46ac:	4f 43       	clr.b	r15		
    46ae:	30 41       	ret			

000046b0 <MotePlatformC__TOSH_FLASH_M25P_DP_bit>:
    46b0:	4f 93       	tst.b	r15		
    46b2:	04 24       	jz	$+10     	;abs 0x46bc
    46b4:	5f 42 19 00 	mov.b	&0x0019,r15	
    46b8:	6f d3       	bis.b	#2,	r15	;r3 As==10
    46ba:	04 3c       	jmp	$+10     	;abs 0x46c4
    46bc:	5f 42 19 00 	mov.b	&0x0019,r15	
    46c0:	7f f0 fd ff 	and.b	#-3,	r15	;#0xfffd
    46c4:	c2 4f 19 00 	mov.b	r15,	&0x0019	
    46c8:	f2 d2 19 00 	bis.b	#8,	&0x0019	;r2 As==11
    46cc:	f2 f0 f7 ff 19 00 	and.b	#-9,	&0x0019	;#0xfff7
    46d2:	30 41       	ret			

000046d4 <CC2420PacketP__getNetwork>:
    46d4:	5c 4f 02 00 	mov.b	2(r15),	r12	;0x0002(r15)
    46d8:	8c 10       	swpb	r12		
    46da:	5e 4f 01 00 	mov.b	1(r15),	r14	;0x0001(r15)
    46de:	0c de       	bis	r14,	r12	
    46e0:	0e 4c       	mov	r12,	r14	
    46e2:	8e 10       	swpb	r14		
    46e4:	4e 4e       	mov.b	r14,	r14	
    46e6:	12 c3       	clrc			
    46e8:	0e 10       	rrc	r14		
    46ea:	12 c3       	clrc			
    46ec:	0e 10       	rrc	r14		
    46ee:	3e f0 03 00 	and	#3,	r14	;#0x0003
    46f2:	5d 4e 9c a0 	mov.b	-24420(r14),r13	;0xa09c(r14)
    46f6:	8d 11       	sxt	r13		
    46f8:	0e 4c       	mov	r12,	r14	
    46fa:	8e 10       	swpb	r14		
    46fc:	4e 4e       	mov.b	r14,	r14	
    46fe:	7c 40 06 00 	mov.b	#6,	r12	;#0x0006
    4702:	12 c3       	clrc			
    4704:	0e 10       	rrc	r14		
    4706:	7c 53       	add.b	#-1,	r12	;r3 As==11
    4708:	fc 23       	jnz	$-6      	;abs 0x4702
    470a:	5e 4e 9c a0 	mov.b	-24420(r14),r14	;0xa09c(r14)
    470e:	8e 11       	sxt	r14		
    4710:	0e 5d       	add	r13,	r14	
    4712:	3e 50 06 00 	add	#6,	r14	;#0x0006
    4716:	0f 5e       	add	r14,	r15	
    4718:	30 41       	ret			

0000471a <CC2420ReceiveP__reset_state>:
    471a:	f2 40 80 ff 84 11 	mov.b	#-128,	&0x1184	;#0xff80
    4720:	c2 43 ca 11 	mov.b	#0,	&0x11ca	;r3 As==00
    4724:	c2 43 30 13 	mov.b	#0,	&0x1330	;r3 As==00
    4728:	c2 43 28 13 	mov.b	#0,	&0x1328	;r3 As==00
    472c:	c2 43 b5 11 	mov.b	#0,	&0x11b5	;r3 As==00
    4730:	30 41       	ret			

00004732 <LocalIeeeEui64P__LocalIeeeEui64__getId>:
    4732:	0b 12       	push	r11		
    4734:	0a 12       	push	r10		
    4736:	09 12       	push	r9		
    4738:	08 12       	push	r8		
    473a:	c2 93 3a 11 	tst.b	&0x113a	
    473e:	b0 20       	jnz	$+354    	;abs 0x48a0
    4740:	c2 93 38 11 	tst.b	&0x1138	
    4744:	82 20       	jnz	$+262    	;abs 0x484a
    4746:	b0 12 40 46 	call	#0x4640	
    474a:	f2 f0 ef ff 29 00 	and.b	#-17,	&0x0029	;#0xffef
    4750:	b0 12 48 46 	call	#0x4648	
    4754:	3f 40 30 02 	mov	#560,	r15	;#0x0230
    4758:	b0 12 16 46 	call	#0x4616	
    475c:	b0 12 40 46 	call	#0x4640	
    4760:	3f 40 3c 00 	mov	#60,	r15	;#0x003c
    4764:	b0 12 16 46 	call	#0x4616	
    4768:	0b 43       	clr	r11		
    476a:	f2 b0 10 00 28 00 	bit.b	#16,	&0x0028	;#0x0010
    4770:	09 24       	jz	$+20     	;abs 0x4784
    4772:	3b 50 05 00 	add	#5,	r11	;#0x0005
    4776:	3f 40 05 00 	mov	#5,	r15	;#0x0005
    477a:	b0 12 16 46 	call	#0x4616	
    477e:	3b 90 f0 00 	cmp	#240,	r11	;#0x00f0
    4782:	f3 23       	jnz	$-24     	;abs 0x476a
    4784:	3f 40 a4 01 	mov	#420,	r15	;#0x01a4
    4788:	b0 12 16 46 	call	#0x4616	
    478c:	3b 90 f0 00 	cmp	#240,	r11	;#0x00f0
    4790:	5e 2c       	jc	$+190    	;abs 0x484e
    4792:	7a 42       	mov.b	#8,	r10	;r2 As==11
    4794:	7b 40 33 00 	mov.b	#51,	r11	;#0x0033
    4798:	1b b3       	bit	#1,	r11	;r3 As==01
    479a:	0b 24       	jz	$+24     	;abs 0x47b2
    479c:	b0 12 48 46 	call	#0x4648	
    47a0:	3f 40 05 00 	mov	#5,	r15	;#0x0005
    47a4:	b0 12 16 46 	call	#0x4616	
    47a8:	b0 12 40 46 	call	#0x4640	
    47ac:	3f 40 41 00 	mov	#65,	r15	;#0x0041
    47b0:	0a 3c       	jmp	$+22     	;abs 0x47c6
    47b2:	b0 12 48 46 	call	#0x4648	
    47b6:	3f 40 3c 00 	mov	#60,	r15	;#0x003c
    47ba:	b0 12 16 46 	call	#0x4616	
    47be:	b0 12 40 46 	call	#0x4640	
    47c2:	3f 40 05 00 	mov	#5,	r15	;#0x0005
    47c6:	b0 12 16 46 	call	#0x4616	
    47ca:	12 c3       	clrc			
    47cc:	4b 10       	rrc.b	r11		
    47ce:	7a 53       	add.b	#-1,	r10	;r3 As==11
    47d0:	e3 23       	jnz	$-56     	;abs 0x4798
    47d2:	3a 40 7a 12 	mov	#4730,	r10	;#0x127a
    47d6:	79 42       	mov.b	#8,	r9	;r2 As==11
    47d8:	4b 43       	clr.b	r11		
    47da:	12 c3       	clrc			
    47dc:	4b 10       	rrc.b	r11		
    47de:	b0 12 48 46 	call	#0x4648	
    47e2:	3f 40 05 00 	mov	#5,	r15	;#0x0005
    47e6:	b0 12 16 46 	call	#0x4616	
    47ea:	b0 12 40 46 	call	#0x4640	
    47ee:	3f 40 05 00 	mov	#5,	r15	;#0x0005
    47f2:	b0 12 16 46 	call	#0x4616	
    47f6:	58 42 28 00 	mov.b	&0x0028,r8	
    47fa:	3f 40 41 00 	mov	#65,	r15	;#0x0041
    47fe:	b0 12 16 46 	call	#0x4616	
    4802:	78 b0 10 00 	bit.b	#16,	r8	;#0x0010
    4806:	02 24       	jz	$+6      	;abs 0x480c
    4808:	7b d0 80 ff 	bis.b	#-128,	r11	;#0xff80
    480c:	79 53       	add.b	#-1,	r9	;r3 As==11
    480e:	e5 23       	jnz	$-52     	;abs 0x47da
    4810:	ca 4b 00 00 	mov.b	r11,	0(r10)	;0x0000(r10)
    4814:	1a 53       	inc	r10		
    4816:	3a 90 82 12 	cmp	#4738,	r10	;#0x1282
    481a:	dd 23       	jnz	$-68     	;abs 0x47d6
    481c:	0e 43       	clr	r14		
    481e:	4f 43       	clr.b	r15		
    4820:	5f ee 7a 12 	xor.b	4730(r14),r15	;0x127a(r14)
    4824:	7d 42       	mov.b	#8,	r13	;r2 As==11
    4826:	0c 4f       	mov	r15,	r12	
    4828:	1c f3       	and	#1,	r12	;r3 As==01
    482a:	12 c3       	clrc			
    482c:	4f 10       	rrc.b	r15		
    482e:	0c 93       	tst	r12		
    4830:	02 24       	jz	$+6      	;abs 0x4836
    4832:	7f e0 8c ff 	xor.b	#-116,	r15	;#0xff8c
    4836:	7d 53       	add.b	#-1,	r13	;r3 As==11
    4838:	f6 23       	jnz	$-18     	;abs 0x4826
    483a:	1e 53       	inc	r14		
    483c:	3e 92       	cmp	#8,	r14	;r2 As==11
    483e:	f0 23       	jnz	$-30     	;abs 0x4820
    4840:	4f 93       	tst.b	r15		
    4842:	07 20       	jnz	$+16     	;abs 0x4852
    4844:	d2 43 38 11 	mov.b	#1,	&0x1138	;r3 As==01
    4848:	06 3c       	jmp	$+14     	;abs 0x4856
    484a:	4f 43       	clr.b	r15		
    484c:	04 3c       	jmp	$+10     	;abs 0x4856
    484e:	6f 42       	mov.b	#4,	r15	;r2 As==10
    4850:	02 3c       	jmp	$+6      	;abs 0x4856
    4852:	7f 40 06 00 	mov.b	#6,	r15	;#0x0006
    4856:	c2 93 38 11 	tst.b	&0x1138	
    485a:	07 24       	jz	$+16     	;abs 0x486a
    485c:	5e 42 7b 12 	mov.b	&0x127b,r14	
    4860:	5d 42 7c 12 	mov.b	&0x127c,r13	
    4864:	5c 42 7d 12 	mov.b	&0x127d,r12	
    4868:	03 3c       	jmp	$+8      	;abs 0x4870
    486a:	4c 43       	clr.b	r12		
    486c:	4d 43       	clr.b	r13		
    486e:	4e 43       	clr.b	r14		
    4870:	4f 93       	tst.b	r15		
    4872:	16 20       	jnz	$+46     	;abs 0x48a0
    4874:	c2 43 3c 11 	mov.b	#0,	&0x113c	;r3 As==00
    4878:	f2 40 12 00 3d 11 	mov.b	#18,	&0x113d	;#0x0012
    487e:	f2 40 6d 00 3e 11 	mov.b	#109,	&0x113e	;#0x006d
    4884:	f2 40 45 00 3f 11 	mov.b	#69,	&0x113f	;#0x0045
    488a:	f2 40 50 00 40 11 	mov.b	#80,	&0x1140	;#0x0050
    4890:	c2 4c 41 11 	mov.b	r12,	&0x1141	
    4894:	c2 4d 42 11 	mov.b	r13,	&0x1142	
    4898:	c2 4e 43 11 	mov.b	r14,	&0x1143	
    489c:	d2 43 3a 11 	mov.b	#1,	&0x113a	;r3 As==01
    48a0:	1c 42 3c 11 	mov	&0x113c,r12	
    48a4:	1d 42 3e 11 	mov	&0x113e,r13	
    48a8:	1e 42 40 11 	mov	&0x1140,r14	
    48ac:	1f 42 42 11 	mov	&0x1142,r15	
    48b0:	38 41       	pop	r8		
    48b2:	39 41       	pop	r9		
    48b4:	3a 41       	pop	r10		
    48b6:	3b 41       	pop	r11		
    48b8:	30 41       	ret			

000048ba <Msp430Adc12ImplP__resetAdcPin>:
    48ba:	7f 92       	cmp.b	#8,	r15	;r2 As==11
    48bc:	2c 2c       	jc	$+90     	;abs 0x4916
    48be:	4f 4f       	mov.b	r15,	r15	
    48c0:	0f 5f       	rla	r15		
    48c2:	10 4f 7e 9e 	br	-24962(r15)	;0x9e7e(r15)
    48c6:	5f 42 37 00 	mov.b	&0x0037,r15	
    48ca:	7f f0 fe ff 	and.b	#-2,	r15	;#0xfffe
    48ce:	1d 3c       	jmp	$+60     	;abs 0x490a
    48d0:	5f 42 37 00 	mov.b	&0x0037,r15	
    48d4:	7f f0 fd ff 	and.b	#-3,	r15	;#0xfffd
    48d8:	18 3c       	jmp	$+50     	;abs 0x490a
    48da:	5f 42 37 00 	mov.b	&0x0037,r15	
    48de:	7f f0 fb ff 	and.b	#-5,	r15	;#0xfffb
    48e2:	13 3c       	jmp	$+40     	;abs 0x490a
    48e4:	5f 42 37 00 	mov.b	&0x0037,r15	
    48e8:	7f f0 f7 ff 	and.b	#-9,	r15	;#0xfff7
    48ec:	0e 3c       	jmp	$+30     	;abs 0x490a
    48ee:	5f 42 37 00 	mov.b	&0x0037,r15	
    48f2:	7f f0 ef ff 	and.b	#-17,	r15	;#0xffef
    48f6:	09 3c       	jmp	$+20     	;abs 0x490a
    48f8:	5f 42 37 00 	mov.b	&0x0037,r15	
    48fc:	7f f0 df ff 	and.b	#-33,	r15	;#0xffdf
    4900:	04 3c       	jmp	$+10     	;abs 0x490a
    4902:	5f 42 37 00 	mov.b	&0x0037,r15	
    4906:	7f f0 bf ff 	and.b	#-65,	r15	;#0xffbf
    490a:	c2 4f 37 00 	mov.b	r15,	&0x0037	
    490e:	30 41       	ret			
    4910:	f2 f0 7f 00 37 00 	and.b	#127,	&0x0037	;#0x007f
    4916:	30 41       	ret			

00004918 <Msp430Adc12ImplP__stopConversion>:
    4918:	0b 12       	push	r11		
    491a:	5f 42 fe 11 	mov.b	&0x11fe,r15	
    491e:	3f f0 40 00 	and	#64,	r15	;#0x0040
    4922:	03 24       	jz	$+8      	;abs 0x492a
    4924:	0f 43       	clr	r15		
    4926:	b0 12 42 45 	call	#0x4542	
    492a:	4f 43       	clr.b	r15		
    492c:	b0 12 5e 46 	call	#0x465e	
    4930:	7f f0 0f 00 	and.b	#15,	r15	;#0x000f
    4934:	b0 12 ba 48 	call	#0x48ba	
    4938:	5f 42 fe 11 	mov.b	&0x11fe,r15	
    493c:	3f f0 10 00 	and	#16,	r15	;#0x0010
    4940:	0a 20       	jnz	$+22     	;abs 0x4956
    4942:	0d 3c       	jmp	$+28     	;abs 0x495e
    4944:	4f 4b       	mov.b	r11,	r15	
    4946:	b0 12 5e 46 	call	#0x465e	
    494a:	7f f0 0f 00 	and.b	#15,	r15	;#0x000f
    494e:	b0 12 ba 48 	call	#0x48ba	
    4952:	5b 53       	inc.b	r11		
    4954:	01 3c       	jmp	$+4      	;abs 0x4958
    4956:	5b 43       	mov.b	#1,	r11	;r3 As==01
    4958:	5b 92 b6 11 	cmp.b	&0x11b6,r11	
    495c:	f3 2b       	jnc	$-24     	;abs 0x4944
    495e:	b0 12 f0 45 	call	#0x45f0	
    4962:	82 43 a8 01 	mov	#0,	&0x01a8	;r3 As==00
    4966:	82 43 a4 01 	mov	#0,	&0x01a4	;r3 As==00
    496a:	f2 f0 df ff fe 11 	and.b	#-33,	&0x11fe	;#0xffdf
    4970:	3b 41       	pop	r11		
    4972:	30 41       	ret			

00004974 <printfFloat>:
    4974:	0b 12       	push	r11		
    4976:	0a 12       	push	r10		
    4978:	09 12       	push	r9		
    497a:	08 12       	push	r8		
    497c:	07 12       	push	r7		
    497e:	06 12       	push	r6		
    4980:	05 12       	push	r5		
    4982:	04 12       	push	r4		
    4984:	21 83       	decd	r1		
    4986:	0a 4e       	mov	r14,	r10	
    4988:	0b 4f       	mov	r15,	r11	
    498a:	0c 43       	clr	r12		
    498c:	0d 43       	clr	r13		
    498e:	b0 12 ae 8d 	call	#0x8dae	
    4992:	0f 93       	tst	r15		
    4994:	06 34       	jge	$+14     	;abs 0x49a2
    4996:	3b e0 00 80 	xor	#-32768,r11	;#0x8000
    499a:	f1 40 2d 00 00 00 	mov.b	#45,	0(r1)	;#0x002d, 0x0000(r1)
    49a0:	03 3c       	jmp	$+8      	;abs 0x49a8
    49a2:	f1 40 20 00 00 00 	mov.b	#32,	0(r1)	;#0x0020, 0x0000(r1)
    49a8:	0e 4a       	mov	r10,	r14	
    49aa:	0f 4b       	mov	r11,	r15	
    49ac:	b0 12 ca 87 	call	#0x87ca	
    49b0:	08 4e       	mov	r14,	r8	
    49b2:	09 4f       	mov	r15,	r9	
    49b4:	b0 12 8e 8e 	call	#0x8e8e	
    49b8:	0c 4e       	mov	r14,	r12	
    49ba:	0d 4f       	mov	r15,	r13	
    49bc:	0e 4a       	mov	r10,	r14	
    49be:	0f 4b       	mov	r11,	r15	
    49c0:	b0 12 ea 8a 	call	#0x8aea	
    49c4:	0a 4e       	mov	r14,	r10	
    49c6:	0b 4f       	mov	r15,	r11	
    49c8:	0c 43       	clr	r12		
    49ca:	3d 40 20 41 	mov	#16672,	r13	;#0x4120
    49ce:	b0 12 3a 8b 	call	#0x8b3a	
    49d2:	b0 12 ca 87 	call	#0x87ca	
    49d6:	06 4e       	mov	r14,	r6	
    49d8:	07 4f       	mov	r15,	r7	
    49da:	0c 43       	clr	r12		
    49dc:	3d 40 c8 42 	mov	#17096,	r13	;#0x42c8
    49e0:	0e 4a       	mov	r10,	r14	
    49e2:	0f 4b       	mov	r11,	r15	
    49e4:	b0 12 3a 8b 	call	#0x8b3a	
    49e8:	b0 12 ca 87 	call	#0x87ca	
    49ec:	04 4e       	mov	r14,	r4	
    49ee:	05 4f       	mov	r15,	r5	
    49f0:	0c 43       	clr	r12		
    49f2:	3d 40 7a 44 	mov	#17530,	r13	;#0x447a
    49f6:	0e 4a       	mov	r10,	r14	
    49f8:	0f 4b       	mov	r11,	r15	
    49fa:	b0 12 3a 8b 	call	#0x8b3a	
    49fe:	b0 12 ca 87 	call	#0x87ca	
    4a02:	3c 40 0a 00 	mov	#10,	r12	;#0x000a
    4a06:	0d 43       	clr	r13		
    4a08:	b0 12 c0 87 	call	#0x87c0	
    4a0c:	4e 4e       	mov.b	r14,	r14	
    4a0e:	0e 12       	push	r14		
    4a10:	3c 40 0a 00 	mov	#10,	r12	;#0x000a
    4a14:	0d 43       	clr	r13		
    4a16:	0e 44       	mov	r4,	r14	
    4a18:	0f 45       	mov	r5,	r15	
    4a1a:	b0 12 c0 87 	call	#0x87c0	
    4a1e:	4e 4e       	mov.b	r14,	r14	
    4a20:	0e 12       	push	r14		
    4a22:	3c 40 0a 00 	mov	#10,	r12	;#0x000a
    4a26:	0d 43       	clr	r13		
    4a28:	0e 46       	mov	r6,	r14	
    4a2a:	0f 47       	mov	r7,	r15	
    4a2c:	b0 12 c0 87 	call	#0x87c0	
    4a30:	4e 4e       	mov.b	r14,	r14	
    4a32:	0e 12       	push	r14		
    4a34:	09 12       	push	r9		
    4a36:	08 12       	push	r8		
    4a38:	5f 41 0a 00 	mov.b	10(r1),	r15	;0x000a(r1)
    4a3c:	8f 11       	sxt	r15		
    4a3e:	0f 12       	push	r15		
    4a40:	30 12 8e 9e 	push	#-24946	;#0x9e8e
    4a44:	b0 12 0c 95 	call	#0x950c	
    4a48:	31 50 10 00 	add	#16,	r1	;#0x0010
    4a4c:	34 41       	pop	r4		
    4a4e:	35 41       	pop	r5		
    4a50:	36 41       	pop	r6		
    4a52:	37 41       	pop	r7		
    4a54:	38 41       	pop	r8		
    4a56:	39 41       	pop	r9		
    4a58:	3a 41       	pop	r10		
    4a5a:	3b 41       	pop	r11		
    4a5c:	30 41       	ret			

00004a5e <HplMsp430Usart0P__Usart__resetUsart>:
    4a5e:	4f 93       	tst.b	r15		
    4a60:	03 24       	jz	$+8      	;abs 0x4a68
    4a62:	d2 43 70 00 	mov.b	#1,	&0x0070	;r3 As==01
    4a66:	30 41       	ret			
    4a68:	f2 f0 fe ff 70 00 	and.b	#-2,	&0x0070	;#0xfffe
    4a6e:	30 41       	ret			

00004a70 <SchedulerBasicP__popTask.part.144>:
    4a70:	5f 42 29 13 	mov.b	&0x1329,r15	
    4a74:	4e 4f       	mov.b	r15,	r14	
    4a76:	3e 50 92 11 	add	#4498,	r14	;#0x1192
    4a7a:	6d 4e       	mov.b	@r14,	r13	
    4a7c:	c2 4d 29 13 	mov.b	r13,	&0x1329	
    4a80:	7d 93       	cmp.b	#-1,	r13	;r3 As==11
    4a82:	02 20       	jnz	$+6      	;abs 0x4a88
    4a84:	f2 43 51 13 	mov.b	#-1,	&0x1351	;r3 As==11
    4a88:	fe 43 00 00 	mov.b	#-1,	0(r14)	;r3 As==11, 0x0000(r14)
    4a8c:	30 41       	ret			

00004a8e <Msp430TimerP__0__Event__fired>:
    4a8e:	5f 93       	cmp.b	#1,	r15	;r3 As==01
    4a90:	0c 24       	jz	$+26     	;abs 0x4aaa
    4a92:	03 28       	jnc	$+8      	;abs 0x4a9a
    4a94:	6f 93       	cmp.b	#2,	r15	;r3 As==10
    4a96:	18 20       	jnz	$+50     	;abs 0x4ac8
    4a98:	10 3c       	jmp	$+34     	;abs 0x4aba
    4a9a:	1f 42 62 01 	mov	&0x0162,r15	
    4a9e:	8f 10       	swpb	r15		
    4aa0:	5f f3       	and.b	#1,	r15	;r3 As==01
    4aa2:	12 24       	jz	$+38     	;abs 0x4ac8
    4aa4:	1f 42 72 01 	mov	&0x0172,r15	
    4aa8:	30 41       	ret			
    4aaa:	1f 42 64 01 	mov	&0x0164,r15	
    4aae:	8f 10       	swpb	r15		
    4ab0:	5f f3       	and.b	#1,	r15	;r3 As==01
    4ab2:	0a 24       	jz	$+22     	;abs 0x4ac8
    4ab4:	1f 42 74 01 	mov	&0x0174,r15	
    4ab8:	30 41       	ret			
    4aba:	1f 42 66 01 	mov	&0x0166,r15	
    4abe:	8f 10       	swpb	r15		
    4ac0:	5f f3       	and.b	#1,	r15	;r3 As==01
    4ac2:	02 24       	jz	$+6      	;abs 0x4ac8
    4ac4:	1f 42 76 01 	mov	&0x0176,r15	
    4ac8:	30 41       	ret			

00004aca <ArbiterP__2__ResourceConfigure__unconfigure.part.173>:
    4aca:	5f 43       	mov.b	#1,	r15	;r3 As==01
    4acc:	b0 12 5e 4a 	call	#0x4a5e	
    4ad0:	f2 f0 bf ff 04 00 	and.b	#-65,	&0x0004	;#0xffbf
    4ad6:	3f 40 1b 00 	mov	#27,	r15	;#0x001b
    4ada:	ff f0 fd ff 00 00 	and.b	#-3,	0(r15)	;#0xfffd, 0x0000(r15)
    4ae0:	ff f0 fb ff 00 00 	and.b	#-5,	0(r15)	;#0xfffb, 0x0000(r15)
    4ae6:	ff f0 f7 ff 00 00 	and.b	#-9,	0(r15)	;#0xfff7, 0x0000(r15)
    4aec:	4f 43       	clr.b	r15		
    4aee:	b0 12 5e 4a 	call	#0x4a5e	
    4af2:	30 41       	ret			

00004af4 <SensirionSht11ReaderP__0__Temperature__readDone.part.185>:
    4af4:	0b 12       	push	r11		
    4af6:	0b 4f       	mov	r15,	r11	
    4af8:	30 12 9b 9e 	push	#-24933	;#0x9e9b
    4afc:	b0 12 0c 95 	call	#0x950c	
    4b00:	21 53       	incd	r1		
    4b02:	0e 4b       	mov	r11,	r14	
    4b04:	0f 43       	clr	r15		
    4b06:	b0 12 8e 8e 	call	#0x8e8e	
    4b0a:	3c 40 0a d7 	mov	#-10486,r12	;#0xd70a
    4b0e:	3d 40 23 3c 	mov	#15395,	r13	;#0x3c23
    4b12:	b0 12 3a 8b 	call	#0x8b3a	
    4b16:	3c 40 66 66 	mov	#26214,	r12	;#0x6666
    4b1a:	3d 40 1e 42 	mov	#16926,	r13	;#0x421e
    4b1e:	b0 12 ea 8a 	call	#0x8aea	
    4b22:	b0 12 74 49 	call	#0x4974	
    4b26:	3f 40 aa 9e 	mov	#-24918,r15	;#0x9eaa
    4b2a:	b0 12 60 9d 	call	#0x9d60	
    4b2e:	3b 41       	pop	r11		
    4b30:	30 41       	ret			

00004b32 <AdcP__Read__readDone>:
    4b32:	0b 12       	push	r11		
    4b34:	0b 4d       	mov	r13,	r11	
    4b36:	4f 93       	tst.b	r15		
    4b38:	03 24       	jz	$+8      	;abs 0x4b40
    4b3a:	5f 93       	cmp.b	#1,	r15	;r3 As==01
    4b3c:	42 20       	jnz	$+134    	;abs 0x4bc2
    4b3e:	23 3c       	jmp	$+72     	;abs 0x4b86
    4b40:	4e 93       	tst.b	r14		
    4b42:	1e 20       	jnz	$+62     	;abs 0x4b80
    4b44:	30 12 ad 9e 	push	#-24915	;#0x9ead
    4b48:	b0 12 0c 95 	call	#0x950c	
    4b4c:	21 53       	incd	r1		
    4b4e:	0e 4b       	mov	r11,	r14	
    4b50:	0f 43       	clr	r15		
    4b52:	b0 12 8e 8e 	call	#0x8e8e	
    4b56:	0c 43       	clr	r12		
    4b58:	3d 40 80 39 	mov	#14720,	r13	;#0x3980
    4b5c:	b0 12 3a 8b 	call	#0x8b3a	
    4b60:	0c 43       	clr	r12		
    4b62:	3d 40 40 40 	mov	#16448,	r13	;#0x4040
    4b66:	b0 12 3a 8b 	call	#0x8b3a	
    4b6a:	3c 40 00 50 	mov	#20480,	r12	;#0x5000
    4b6e:	3d 40 c3 45 	mov	#17859,	r13	;#0x45c3
    4b72:	b0 12 3a 8b 	call	#0x8b3a	
    4b76:	b0 12 74 49 	call	#0x4974	
    4b7a:	3f 40 b6 9e 	mov	#-24906,r15	;#0x9eb6
    4b7e:	1f 3c       	jmp	$+64     	;abs 0x4bbe
    4b80:	3f 40 bb 9e 	mov	#-24901,r15	;#0x9ebb
    4b84:	1c 3c       	jmp	$+58     	;abs 0x4bbe
    4b86:	4e 93       	tst.b	r14		
    4b88:	18 20       	jnz	$+50     	;abs 0x4bba
    4b8a:	30 12 d2 9e 	push	#-24878	;#0x9ed2
    4b8e:	b0 12 0c 95 	call	#0x950c	
    4b92:	21 53       	incd	r1		
    4b94:	0e 4b       	mov	r11,	r14	
    4b96:	0f 43       	clr	r15		
    4b98:	b0 12 8e 8e 	call	#0x8e8e	
    4b9c:	0c 43       	clr	r12		
    4b9e:	3d 40 80 39 	mov	#14720,	r13	;#0x3980
    4ba2:	b0 12 3a 8b 	call	#0x8b3a	
    4ba6:	0c 43       	clr	r12		
    4ba8:	3d 40 40 40 	mov	#16448,	r13	;#0x4040
    4bac:	b0 12 3a 8b 	call	#0x8b3a	
    4bb0:	b0 12 74 49 	call	#0x4974	
    4bb4:	3f 40 dd 9e 	mov	#-24867,r15	;#0x9edd
    4bb8:	02 3c       	jmp	$+6      	;abs 0x4bbe
    4bba:	3f 40 e3 9e 	mov	#-24861,r15	;#0x9ee3
    4bbe:	b0 12 60 9d 	call	#0x9d60	
    4bc2:	3b 41       	pop	r11		
    4bc4:	30 41       	ret			

00004bc6 <SensirionSht11ReaderP__0__Humidity__readDone.part.189>:
    4bc6:	0b 12       	push	r11		
    4bc8:	0a 12       	push	r10		
    4bca:	09 12       	push	r9		
    4bcc:	08 12       	push	r8		
    4bce:	0a 4f       	mov	r15,	r10	
    4bd0:	30 12 fc 9e 	push	#-24836	;#0x9efc
    4bd4:	b0 12 0c 95 	call	#0x950c	
    4bd8:	21 53       	incd	r1		
    4bda:	0e 4a       	mov	r10,	r14	
    4bdc:	0f 43       	clr	r15		
    4bde:	b0 12 8e 8e 	call	#0x8e8e	
    4be2:	0a 4e       	mov	r14,	r10	
    4be4:	0b 4f       	mov	r15,	r11	
    4be6:	0c 4e       	mov	r14,	r12	
    4be8:	0d 4f       	mov	r15,	r13	
    4bea:	b0 12 3a 8b 	call	#0x8b3a	
    4bee:	08 4e       	mov	r14,	r8	
    4bf0:	09 4f       	mov	r15,	r9	
    4bf2:	3c 40 bd 52 	mov	#21181,	r12	;#0x52bd
    4bf6:	3d 40 16 3d 	mov	#15638,	r13	;#0x3d16
    4bfa:	0e 4a       	mov	r10,	r14	
    4bfc:	0f 4b       	mov	r11,	r15	
    4bfe:	b0 12 3a 8b 	call	#0x8b3a	
    4c02:	3c 40 c5 fe 	mov	#-315,	r12	;#0xfec5
    4c06:	3d 40 02 40 	mov	#16386,	r13	;#0x4002
    4c0a:	b0 12 ea 8a 	call	#0x8aea	
    4c0e:	0a 4e       	mov	r14,	r10	
    4c10:	0b 4f       	mov	r15,	r11	
    4c12:	3c 40 f6 24 	mov	#9462,	r12	;#0x24f6
    4c16:	3d 40 d6 35 	mov	#13782,	r13	;#0x35d6
    4c1a:	0e 48       	mov	r8,	r14	
    4c1c:	0f 49       	mov	r9,	r15	
    4c1e:	b0 12 3a 8b 	call	#0x8b3a	
    4c22:	0c 4e       	mov	r14,	r12	
    4c24:	0d 4f       	mov	r15,	r13	
    4c26:	0e 4a       	mov	r10,	r14	
    4c28:	0f 4b       	mov	r11,	r15	
    4c2a:	b0 12 ea 8a 	call	#0x8aea	
    4c2e:	b0 12 74 49 	call	#0x4974	
    4c32:	30 12 08 9f 	push	#-24824	;#0x9f08
    4c36:	b0 12 0c 95 	call	#0x950c	
    4c3a:	21 53       	incd	r1		
    4c3c:	38 41       	pop	r8		
    4c3e:	39 41       	pop	r9		
    4c40:	3a 41       	pop	r10		
    4c42:	3b 41       	pop	r11		
    4c44:	30 41       	ret			

00004c46 <__nesc_atomic_start>:
    4c46:	0e 42       	mov	r2,	r14	
    4c48:	32 c2       	dint			
    4c4a:	03 43       	nop			
    4c4c:	03 43       	nop			
    4c4e:	3e f2       	and	#8,	r14	;r2 As==11
    4c50:	5f 43       	mov.b	#1,	r15	;r3 As==01
    4c52:	01 20       	jnz	$+4      	;abs 0x4c56
    4c54:	4f 43       	clr.b	r15		
    4c56:	30 41       	ret			

00004c58 <__nesc_atomic_end>:
    4c58:	4f 93       	tst.b	r15		
    4c5a:	01 24       	jz	$+4      	;abs 0x4c5e
    4c5c:	32 d2       	eint			
    4c5e:	30 41       	ret			

00004c60 <Msp430SpiNoDmaP__0__continueOp>:
    4c60:	0b 12       	push	r11		
    4c62:	b0 12 46 4c 	call	#0x4c46	
    4c66:	1d 42 e2 11 	mov	&0x11e2,r13	
    4c6a:	1e 42 2e 13 	mov	&0x132e,r14	
    4c6e:	0d 93       	tst	r13		
    4c70:	03 24       	jz	$+8      	;abs 0x4c78
    4c72:	0d 5e       	add	r14,	r13	
    4c74:	6d 4d       	mov.b	@r13,	r13	
    4c76:	01 3c       	jmp	$+4      	;abs 0x4c7a
    4c78:	4d 43       	clr.b	r13		
    4c7a:	c2 4d 77 00 	mov.b	r13,	&0x0077	
    4c7e:	6e 53       	incd.b	r14		
    4c80:	1d 42 32 13 	mov	&0x1332,r13	
    4c84:	4c 4e       	mov.b	r14,	r12	
    4c86:	0d 9c       	cmp	r12,	r13	
    4c88:	1c 2c       	jc	$+58     	;abs 0x4cc2
    4c8a:	4e 4d       	mov.b	r13,	r14	
    4c8c:	1a 3c       	jmp	$+54     	;abs 0x4cc2
    4c8e:	5d 42 02 00 	mov.b	&0x0002,r13	
    4c92:	3d f0 40 00 	and	#64,	r13	;#0x0040
    4c96:	fb 27       	jz	$-8      	;abs 0x4c8e
    4c98:	5b 42 76 00 	mov.b	&0x0076,r11	
    4c9c:	1d 42 6c 12 	mov	&0x126c,r13	
    4ca0:	0d 93       	tst	r13		
    4ca2:	03 24       	jz	$+8      	;abs 0x4caa
    4ca4:	0c 5d       	add	r13,	r12	
    4ca6:	cc 4b 00 00 	mov.b	r11,	0(r12)	;0x0000(r12)
    4caa:	1d 42 e2 11 	mov	&0x11e2,r13	
    4cae:	0d 93       	tst	r13		
    4cb0:	04 24       	jz	$+10     	;abs 0x4cba
    4cb2:	1d 52 2e 13 	add	&0x132e,r13	
    4cb6:	6d 4d       	mov.b	@r13,	r13	
    4cb8:	01 3c       	jmp	$+4      	;abs 0x4cbc
    4cba:	4d 43       	clr.b	r13		
    4cbc:	c2 4d 77 00 	mov.b	r13,	&0x0077	
    4cc0:	01 3c       	jmp	$+4      	;abs 0x4cc4
    4cc2:	4e 4e       	mov.b	r14,	r14	
    4cc4:	1c 42 2e 13 	mov	&0x132e,r12	
    4cc8:	0d 4c       	mov	r12,	r13	
    4cca:	1d 53       	inc	r13		
    4ccc:	82 4d 2e 13 	mov	r13,	&0x132e	
    4cd0:	0d 9e       	cmp	r14,	r13	
    4cd2:	dd 2b       	jnc	$-68     	;abs 0x4c8e
    4cd4:	b0 12 58 4c 	call	#0x4c58	
    4cd8:	3b 41       	pop	r11		
    4cda:	30 41       	ret			

00004cdc <CC2420SpiP__WorkingState__isIdle>:
    4cdc:	0b 12       	push	r11		
    4cde:	b0 12 46 4c 	call	#0x4c46	
    4ce2:	5b 43       	mov.b	#1,	r11	;r3 As==01
    4ce4:	c2 93 74 12 	tst.b	&0x1274	
    4ce8:	01 24       	jz	$+4      	;abs 0x4cec
    4cea:	4b 43       	clr.b	r11		
    4cec:	b0 12 58 4c 	call	#0x4c58	
    4cf0:	4f 4b       	mov.b	r11,	r15	
    4cf2:	3b 41       	pop	r11		
    4cf4:	30 41       	ret			

00004cf6 <CC2420SpiP__Strobe__strobe>:
    4cf6:	0b 12       	push	r11		
    4cf8:	0a 12       	push	r10		
    4cfa:	4a 4f       	mov.b	r15,	r10	
    4cfc:	b0 12 46 4c 	call	#0x4c46	
    4d00:	4b 4f       	mov.b	r15,	r11	
    4d02:	b0 12 dc 4c 	call	#0x4cdc	
    4d06:	4f 93       	tst.b	r15		
    4d08:	05 24       	jz	$+12     	;abs 0x4d14
    4d0a:	4f 4b       	mov.b	r11,	r15	
    4d0c:	b0 12 58 4c 	call	#0x4c58	
    4d10:	4f 43       	clr.b	r15		
    4d12:	06 3c       	jmp	$+14     	;abs 0x4d20
    4d14:	4f 4b       	mov.b	r11,	r15	
    4d16:	b0 12 58 4c 	call	#0x4c58	
    4d1a:	4f 4a       	mov.b	r10,	r15	
    4d1c:	b0 12 b8 45 	call	#0x45b8	
    4d20:	3a 41       	pop	r10		
    4d22:	3b 41       	pop	r11		
    4d24:	30 41       	ret			

00004d26 <Msp430GpioC__7__GeneralIO__clr>:
    4d26:	b0 12 46 4c 	call	#0x4c46	
    4d2a:	f2 f0 fb ff 1d 00 	and.b	#-5,	&0x001d	;#0xfffb
    4d30:	b0 12 58 4c 	call	#0x4c58	
    4d34:	30 41       	ret			

00004d36 <SchedulerBasicP__TaskBasic__postTask>:
    4d36:	0b 12       	push	r11		
    4d38:	4b 4f       	mov.b	r15,	r11	
    4d3a:	b0 12 46 4c 	call	#0x4c46	
    4d3e:	4e 4b       	mov.b	r11,	r14	
    4d40:	fe 93 92 11 	cmp.b	#-1,	4498(r14);r3 As==11, 0x1192(r14)
    4d44:	06 20       	jnz	$+14     	;abs 0x4d52
    4d46:	1e 43       	mov	#1,	r14	;r3 As==01
    4d48:	c2 9b 51 13 	cmp.b	r11,	&0x1351	
    4d4c:	03 24       	jz	$+8      	;abs 0x4d54
    4d4e:	0e 43       	clr	r14		
    4d50:	01 3c       	jmp	$+4      	;abs 0x4d54
    4d52:	1e 43       	mov	#1,	r14	;r3 As==01
    4d54:	0e 93       	tst	r14		
    4d56:	0e 20       	jnz	$+30     	;abs 0x4d74
    4d58:	f2 93 29 13 	cmp.b	#-1,	&0x1329	;r3 As==11
    4d5c:	03 20       	jnz	$+8      	;abs 0x4d64
    4d5e:	c2 4b 29 13 	mov.b	r11,	&0x1329	
    4d62:	04 3c       	jmp	$+10     	;abs 0x4d6c
    4d64:	5e 42 51 13 	mov.b	&0x1351,r14	
    4d68:	ce 4b 92 11 	mov.b	r11,	4498(r14);0x1192(r14)
    4d6c:	c2 4b 51 13 	mov.b	r11,	&0x1351	
    4d70:	4b 43       	clr.b	r11		
    4d72:	02 3c       	jmp	$+6      	;abs 0x4d78
    4d74:	7b 40 05 00 	mov.b	#5,	r11	;#0x0005
    4d78:	b0 12 58 4c 	call	#0x4c58	
    4d7c:	4f 4b       	mov.b	r11,	r15	
    4d7e:	3b 41       	pop	r11		
    4d80:	30 41       	ret			

00004d82 <CC2420SpiP__attemptRelease>:
    4d82:	c2 93 46 11 	tst.b	&0x1146	
    4d86:	39 20       	jnz	$+116    	;abs 0x4dfa
    4d88:	f2 93 0b 11 	cmp.b	#-1,	&0x110b	;r3 As==11
    4d8c:	36 20       	jnz	$+110    	;abs 0x4dfa
    4d8e:	b0 12 dc 4c 	call	#0x4cdc	
    4d92:	4f 93       	tst.b	r15		
    4d94:	32 24       	jz	$+102    	;abs 0x4dfa
    4d96:	d2 43 c7 12 	mov.b	#1,	&0x12c7	;r3 As==01
    4d9a:	c2 93 8e 11 	tst.b	&0x118e	
    4d9e:	02 24       	jz	$+6      	;abs 0x4da4
    4da0:	c2 43 c7 12 	mov.b	#0,	&0x12c7	;r3 As==00
    4da4:	c2 93 c7 12 	tst.b	&0x12c7	
    4da8:	2a 24       	jz	$+86     	;abs 0x4dfe
    4daa:	f2 90 03 00 44 11 	cmp.b	#3,	&0x1144	;#0x0003
    4db0:	29 20       	jnz	$+84     	;abs 0x4e04
    4db2:	c2 93 08 11 	tst.b	&0x1108	
    4db6:	28 20       	jnz	$+82     	;abs 0x4e08
    4db8:	5e 42 0a 11 	mov.b	&0x110a,r14	
    4dbc:	7e 93       	cmp.b	#-1,	r14	;r3 As==11
    4dbe:	16 24       	jz	$+46     	;abs 0x4dec
    4dc0:	4f 4e       	mov.b	r14,	r15	
    4dc2:	5d 4f c6 11 	mov.b	4550(r15),r13	;0x11c6(r15)
    4dc6:	c2 4d 0a 11 	mov.b	r13,	&0x110a	
    4dca:	7d 93       	cmp.b	#-1,	r13	;r3 As==11
    4dcc:	02 20       	jnz	$+6      	;abs 0x4dd2
    4dce:	f2 43 09 11 	mov.b	#-1,	&0x1109	;r3 As==11
    4dd2:	ff 43 c6 11 	mov.b	#-1,	4550(r15);r3 As==11, 0x11c6(r15)
    4dd6:	c2 4e b0 11 	mov.b	r14,	&0x11b0	
    4dda:	f2 43 08 11 	mov.b	#-1,	&0x1108	;r3 As==11
    4dde:	d2 43 44 11 	mov.b	#1,	&0x1144	;r3 As==01
    4de2:	7f 40 16 00 	mov.b	#22,	r15	;#0x0016
    4de6:	b0 12 36 4d 	call	#0x4d36	
    4dea:	04 3c       	jmp	$+10     	;abs 0x4df4
    4dec:	d2 43 08 11 	mov.b	#1,	&0x1108	;r3 As==01
    4df0:	c2 43 44 11 	mov.b	#0,	&0x1144	;r3 As==00
    4df4:	b0 12 ca 4a 	call	#0x4aca	
    4df8:	05 3c       	jmp	$+12     	;abs 0x4e04
    4dfa:	5f 43       	mov.b	#1,	r15	;r3 As==01
    4dfc:	30 41       	ret			
    4dfe:	7f 40 05 00 	mov.b	#5,	r15	;#0x0005
    4e02:	30 41       	ret			
    4e04:	4f 43       	clr.b	r15		
    4e06:	30 41       	ret			
    4e08:	4f 43       	clr.b	r15		
    4e0a:	30 41       	ret			

00004e0c <ArbiterP__2__ResourceDefaultOwner__release>:
    4e0c:	d2 93 08 11 	cmp.b	#1,	&0x1108	;r3 As==01
    4e10:	13 20       	jnz	$+40     	;abs 0x4e38
    4e12:	5f 42 44 11 	mov.b	&0x1144,r15	
    4e16:	5f 93       	cmp.b	#1,	r15	;r3 As==01
    4e18:	05 20       	jnz	$+12     	;abs 0x4e24
    4e1a:	7f 40 16 00 	mov.b	#22,	r15	;#0x0016
    4e1e:	b0 12 36 4d 	call	#0x4d36	
    4e22:	08 3c       	jmp	$+18     	;abs 0x4e34
    4e24:	6f 93       	cmp.b	#2,	r15	;r3 As==10
    4e26:	0a 20       	jnz	$+22     	;abs 0x4e3c
    4e28:	d2 42 b0 11 08 11 	mov.b	&0x11b0,&0x1108	
    4e2e:	f2 40 03 00 44 11 	mov.b	#3,	&0x1144	;#0x0003
    4e34:	4f 43       	clr.b	r15		
    4e36:	30 41       	ret			
    4e38:	5f 43       	mov.b	#1,	r15	;r3 As==01
    4e3a:	30 41       	ret			
    4e3c:	5f 43       	mov.b	#1,	r15	;r3 As==01
    4e3e:	30 41       	ret			

00004e40 <AdcP__SingleChannel__singleDataReady>:
    4e40:	c2 93 f8 11 	tst.b	&0x11f8	
    4e44:	08 20       	jnz	$+18     	;abs 0x4e56
    4e46:	c2 4f 79 12 	mov.b	r15,	&0x1279	
    4e4a:	82 4e 40 13 	mov	r14,	&0x1340	
    4e4e:	7f 40 09 00 	mov.b	#9,	r15	;#0x0009
    4e52:	b0 12 36 4d 	call	#0x4d36	
    4e56:	4f 43       	clr.b	r15		
    4e58:	30 41       	ret			

00004e5a <CC2420SpiP__SpiPacket__send.part.190>:
    4e5a:	b0 12 46 4c 	call	#0x4c46	
    4e5e:	f2 f0 bf ff 02 00 	and.b	#-65,	&0x0002	;#0xffbf
    4e64:	f2 d0 40 00 00 00 	bis.b	#64,	&0x0000	;#0x0040
    4e6a:	b0 12 58 4c 	call	#0x4c58	
    4e6e:	b0 12 60 4c 	call	#0x4c60	
    4e72:	30 41       	ret			

00004e74 <CC2420ReceiveP__RXFIFO__continueRead>:
    4e74:	4e 4e       	mov.b	r14,	r14	
    4e76:	c2 43 f0 11 	mov.b	#0,	&0x11f0	;r3 As==00
    4e7a:	82 43 e2 11 	mov	#0,	&0x11e2	;r3 As==00
    4e7e:	82 4f 6c 12 	mov	r15,	&0x126c	
    4e82:	82 4e 32 13 	mov	r14,	&0x1332	
    4e86:	82 43 2e 13 	mov	#0,	&0x132e	;r3 As==00
    4e8a:	0e 93       	tst	r14		
    4e8c:	03 24       	jz	$+8      	;abs 0x4e94
    4e8e:	b0 12 5a 4e 	call	#0x4e5a	
    4e92:	04 3c       	jmp	$+10     	;abs 0x4e9c
    4e94:	7f 40 15 00 	mov.b	#21,	r15	;#0x0015
    4e98:	b0 12 36 4d 	call	#0x4d36	
    4e9c:	4f 43       	clr.b	r15		
    4e9e:	30 41       	ret			

00004ea0 <CC2420ReceiveP__RXFIFO__beginRead>:
    4ea0:	0b 12       	push	r11		
    4ea2:	0a 12       	push	r10		
    4ea4:	09 12       	push	r9		
    4ea6:	0a 4f       	mov	r15,	r10	
    4ea8:	49 4e       	mov.b	r14,	r9	
    4eaa:	b0 12 46 4c 	call	#0x4c46	
    4eae:	4b 4f       	mov.b	r15,	r11	
    4eb0:	b0 12 dc 4c 	call	#0x4cdc	
    4eb4:	4f 93       	tst.b	r15		
    4eb6:	05 24       	jz	$+12     	;abs 0x4ec2
    4eb8:	4f 4b       	mov.b	r11,	r15	
    4eba:	b0 12 58 4c 	call	#0x4c58	
    4ebe:	4b 43       	clr.b	r11		
    4ec0:	1f 3c       	jmp	$+64     	;abs 0x4f00
    4ec2:	4f 4b       	mov.b	r11,	r15	
    4ec4:	b0 12 58 4c 	call	#0x4c58	
    4ec8:	b2 40 7f 00 f2 11 	mov	#127,	&0x11f2	;#0x007f
    4ece:	7f 40 7f 00 	mov.b	#127,	r15	;#0x007f
    4ed2:	b0 12 b8 45 	call	#0x45b8	
    4ed6:	4b 4f       	mov.b	r15,	r11	
    4ed8:	4e 49       	mov.b	r9,	r14	
    4eda:	c2 43 f0 11 	mov.b	#0,	&0x11f0	;r3 As==00
    4ede:	82 43 e2 11 	mov	#0,	&0x11e2	;r3 As==00
    4ee2:	82 4a 6c 12 	mov	r10,	&0x126c	
    4ee6:	82 4e 32 13 	mov	r14,	&0x1332	
    4eea:	82 43 2e 13 	mov	#0,	&0x132e	;r3 As==00
    4eee:	0e 93       	tst	r14		
    4ef0:	03 24       	jz	$+8      	;abs 0x4ef8
    4ef2:	b0 12 5a 4e 	call	#0x4e5a	
    4ef6:	04 3c       	jmp	$+10     	;abs 0x4f00
    4ef8:	7f 40 15 00 	mov.b	#21,	r15	;#0x0015
    4efc:	b0 12 36 4d 	call	#0x4d36	
    4f00:	4f 4b       	mov.b	r11,	r15	
    4f02:	39 41       	pop	r9		
    4f04:	3a 41       	pop	r10		
    4f06:	3b 41       	pop	r11		
    4f08:	30 41       	ret			

00004f0a <CC2420ReceiveP__receive>:
    4f0a:	b0 12 26 4d 	call	#0x4d26	
    4f0e:	5e 43       	mov.b	#1,	r14	;r3 As==01
    4f10:	1f 42 62 11 	mov	&0x1162,r15	
    4f14:	b0 12 a0 4e 	call	#0x4ea0	
    4f18:	30 41       	ret			

00004f1a <CC2420TransmitP__Send__sendDone.isra.198>:
    4f1a:	0b 12       	push	r11		
    4f1c:	4b 4f       	mov.b	r15,	r11	
    4f1e:	b0 12 46 4c 	call	#0x4c46	
    4f22:	c2 4b 4a 11 	mov.b	r11,	&0x114a	
    4f26:	b0 12 58 4c 	call	#0x4c58	
    4f2a:	7f 40 11 00 	mov.b	#17,	r15	;#0x0011
    4f2e:	b0 12 36 4d 	call	#0x4d36	
    4f32:	3b 41       	pop	r11		
    4f34:	30 41       	ret			

00004f36 <CC2420TransmitP__signalDone>:
    4f36:	0b 12       	push	r11		
    4f38:	4b 4f       	mov.b	r15,	r11	
    4f3a:	92 43 36 11 	mov	#1,	&0x1136	;r3 As==01
    4f3e:	c2 43 8e 11 	mov.b	#0,	&0x118e	;r3 As==00
    4f42:	b0 12 82 4d 	call	#0x4d82	
    4f46:	4f 4b       	mov.b	r11,	r15	
    4f48:	b0 12 1a 4f 	call	#0x4f1a	
    4f4c:	3b 41       	pop	r11		
    4f4e:	30 41       	ret			

00004f50 <Msp430GpioC__7__GeneralIO__set>:
    4f50:	b0 12 46 4c 	call	#0x4c46	
    4f54:	e2 d2 1d 00 	bis.b	#4,	&0x001d	;r2 As==10
    4f58:	b0 12 58 4c 	call	#0x4c58	
    4f5c:	30 41       	ret			

00004f5e <CC2420SpiP__Resource__release>:
    4f5e:	0b 12       	push	r11		
    4f60:	0a 12       	push	r10		
    4f62:	09 12       	push	r9		
    4f64:	4b 4f       	mov.b	r15,	r11	
    4f66:	b0 12 46 4c 	call	#0x4c46	
    4f6a:	4a 4f       	mov.b	r15,	r10	
    4f6c:	c2 9b 0b 11 	cmp.b	r11,	&0x110b	
    4f70:	04 24       	jz	$+10     	;abs 0x4f7a
    4f72:	b0 12 58 4c 	call	#0x4c58	
    4f76:	5f 43       	mov.b	#1,	r15	;r3 As==01
    4f78:	4c 3c       	jmp	$+154    	;abs 0x5012
    4f7a:	f2 43 0b 11 	mov.b	#-1,	&0x110b	;r3 As==11
    4f7e:	5b 42 46 11 	mov.b	&0x1146,r11	
    4f82:	4b 93       	tst.b	r11		
    4f84:	09 20       	jnz	$+20     	;abs 0x4f98
    4f86:	b0 12 46 4c 	call	#0x4c46	
    4f8a:	c2 43 74 12 	mov.b	#0,	&0x1274	;r3 As==00
    4f8e:	b0 12 58 4c 	call	#0x4c58	
    4f92:	b0 12 82 4d 	call	#0x4d82	
    4f96:	35 3c       	jmp	$+108    	;abs 0x5002
    4f98:	4c 43       	clr.b	r12		
    4f9a:	49 4b       	mov.b	r11,	r9	
    4f9c:	02 12       	push	r2		
    4f9e:	32 c2       	dint			
    4fa0:	03 43       	nop			
    4fa2:	c2 4c 30 01 	mov.b	r12,	&0x0130	
    4fa6:	f2 40 cd ff 38 01 	mov.b	#-51,	&0x0138	;#0xffcd
    4fac:	1e 42 3a 01 	mov	&0x013a,r14	
    4fb0:	32 41       	pop	r2		
    4fb2:	8e 10       	swpb	r14		
    4fb4:	12 c3       	clrc			
    4fb6:	4e 10       	rrc.b	r14		
    4fb8:	12 c3       	clrc			
    4fba:	4e 10       	rrc.b	r14		
    4fbc:	4d 4e       	mov.b	r14,	r13	
    4fbe:	4d 5d       	rla.b	r13		
    4fc0:	4d 5d       	rla.b	r13		
    4fc2:	4e 5d       	add.b	r13,	r14	
    4fc4:	4c 8e       	sub.b	r14,	r12	
    4fc6:	4e 4c       	mov.b	r12,	r14	
    4fc8:	4f 4c       	mov.b	r12,	r15	
    4fca:	0d 49       	mov	r9,	r13	
    4fcc:	7c f0 0f 00 	and.b	#15,	r12	;#0x000f
    4fd0:	4c 93       	tst.b	r12		
    4fd2:	03 24       	jz	$+8      	;abs 0x4fda
    4fd4:	0d 11       	rra	r13		
    4fd6:	7c 53       	add.b	#-1,	r12	;r3 As==11
    4fd8:	fb 3f       	jmp	$-8      	;abs 0x4fd0
    4fda:	1d f3       	and	#1,	r13	;r3 As==01
    4fdc:	17 24       	jz	$+48     	;abs 0x500c
    4fde:	c2 4e 0b 11 	mov.b	r14,	&0x110b	
    4fe2:	1e 43       	mov	#1,	r14	;r3 As==01
    4fe4:	4d 4f       	mov.b	r15,	r13	
    4fe6:	7d f0 0f 00 	and.b	#15,	r13	;#0x000f
    4fea:	4d 93       	tst.b	r13		
    4fec:	03 24       	jz	$+8      	;abs 0x4ff4
    4fee:	0e 5e       	rla	r14		
    4ff0:	7d 53       	add.b	#-1,	r13	;r3 As==11
    4ff2:	fb 3f       	jmp	$-8      	;abs 0x4fea
    4ff4:	4b ce       	bic.b	r14,	r11	
    4ff6:	c2 4b 46 11 	mov.b	r11,	&0x1146	
    4ffa:	7f 40 14 00 	mov.b	#20,	r15	;#0x0014
    4ffe:	b0 12 36 4d 	call	#0x4d36	
    5002:	4f 4a       	mov.b	r10,	r15	
    5004:	b0 12 58 4c 	call	#0x4c58	
    5008:	4f 43       	clr.b	r15		
    500a:	03 3c       	jmp	$+8      	;abs 0x5012
    500c:	4c 4e       	mov.b	r14,	r12	
    500e:	5c 53       	inc.b	r12		
    5010:	c5 3f       	jmp	$-116    	;abs 0x4f9c
    5012:	39 41       	pop	r9		
    5014:	3a 41       	pop	r10		
    5016:	3b 41       	pop	r11		
    5018:	30 41       	ret			

0000501a <CC2420TransmitP__releaseSpiResource>:
    501a:	7f 40 03 00 	mov.b	#3,	r15	;#0x0003
    501e:	b0 12 5e 4f 	call	#0x4f5e	
    5022:	4f 43       	clr.b	r15		
    5024:	30 41       	ret			

00005026 <TransformAlarmC__2__Counter__get>:
    5026:	0b 12       	push	r11		
    5028:	0a 12       	push	r10		
    502a:	09 12       	push	r9		
    502c:	b0 12 46 4c 	call	#0x4c46	
    5030:	49 4f       	mov.b	r15,	r9	
    5032:	1b 42 e0 11 	mov	&0x11e0,r11	
    5036:	b0 12 68 46 	call	#0x4668	
    503a:	0a 4f       	mov	r15,	r10	
    503c:	1f 42 80 01 	mov	&0x0180,r15	
    5040:	5f f3       	and.b	#1,	r15	;r3 As==01
    5042:	04 24       	jz	$+10     	;abs 0x504c
    5044:	1b 53       	inc	r11		
    5046:	b0 12 68 46 	call	#0x4668	
    504a:	0a 4f       	mov	r15,	r10	
    504c:	0c 43       	clr	r12		
    504e:	0d 43       	clr	r13		
    5050:	0d 4b       	mov	r11,	r13	
    5052:	0e 4a       	mov	r10,	r14	
    5054:	0f 43       	clr	r15		
    5056:	0a 4c       	mov	r12,	r10	
    5058:	0b 4d       	mov	r13,	r11	
    505a:	0a de       	bis	r14,	r10	
    505c:	0b df       	bis	r15,	r11	
    505e:	4f 49       	mov.b	r9,	r15	
    5060:	b0 12 58 4c 	call	#0x4c58	
    5064:	0e 4a       	mov	r10,	r14	
    5066:	0f 4b       	mov	r11,	r15	
    5068:	39 41       	pop	r9		
    506a:	3a 41       	pop	r10		
    506c:	3b 41       	pop	r11		
    506e:	30 41       	ret			

00005070 <TransformAlarmC__2__set_alarm>:
    5070:	0b 12       	push	r11		
    5072:	0a 12       	push	r10		
    5074:	09 12       	push	r9		
    5076:	08 12       	push	r8		
    5078:	b0 12 26 50 	call	#0x5026	
    507c:	08 4e       	mov	r14,	r8	
    507e:	09 4f       	mov	r15,	r9	
    5080:	1e 42 84 12 	mov	&0x1284,r14	
    5084:	1f 42 86 12 	mov	&0x1286,r15	
    5088:	0a 4e       	mov	r14,	r10	
    508a:	0b 4f       	mov	r15,	r11	
    508c:	1a 52 cc 11 	add	&0x11cc,r10	
    5090:	1b 62 ce 11 	addc	&0x11ce,r11	
    5094:	09 9f       	cmp	r15,	r9	
    5096:	09 28       	jnc	$+20     	;abs 0x50aa
    5098:	02 20       	jnz	$+6      	;abs 0x509e
    509a:	08 9e       	cmp	r14,	r8	
    509c:	06 28       	jnc	$+14     	;abs 0x50aa
    509e:	0b 9f       	cmp	r15,	r11	
    50a0:	10 28       	jnc	$+34     	;abs 0x50c2
    50a2:	09 20       	jnz	$+20     	;abs 0x50b6
    50a4:	0a 9e       	cmp	r14,	r10	
    50a6:	0d 28       	jnc	$+28     	;abs 0x50c2
    50a8:	06 3c       	jmp	$+14     	;abs 0x50b6
    50aa:	0b 9f       	cmp	r15,	r11	
    50ac:	04 28       	jnc	$+10     	;abs 0x50b6
    50ae:	0f 9b       	cmp	r11,	r15	
    50b0:	27 28       	jnc	$+80     	;abs 0x5100
    50b2:	0a 9e       	cmp	r14,	r10	
    50b4:	25 2c       	jc	$+76     	;abs 0x5100
    50b6:	09 9b       	cmp	r11,	r9	
    50b8:	04 28       	jnc	$+10     	;abs 0x50c2
    50ba:	0b 99       	cmp	r9,	r11	
    50bc:	21 28       	jnc	$+68     	;abs 0x5100
    50be:	08 9a       	cmp	r10,	r8	
    50c0:	1f 2c       	jc	$+64     	;abs 0x5100
    50c2:	0c 4a       	mov	r10,	r12	
    50c4:	0d 4b       	mov	r11,	r13	
    50c6:	0c 88       	sub	r8,	r12	
    50c8:	0d 79       	subc	r9,	r13	
    50ca:	0d 93       	tst	r13		
    50cc:	03 20       	jnz	$+8      	;abs 0x50d4
    50ce:	3c 90 01 80 	cmp	#-32767,r12	;#0x8001
    50d2:	18 28       	jnc	$+50     	;abs 0x5104
    50d4:	0e 48       	mov	r8,	r14	
    50d6:	0f 49       	mov	r9,	r15	
    50d8:	3e 50 00 80 	add	#-32768,r14	;#0x8000
    50dc:	0f 63       	adc	r15		
    50de:	82 4e 84 12 	mov	r14,	&0x1284	
    50e2:	82 4f 86 12 	mov	r15,	&0x1286	
    50e6:	0e 4c       	mov	r12,	r14	
    50e8:	0f 4d       	mov	r13,	r15	
    50ea:	3e 50 00 80 	add	#-32768,r14	;#0x8000
    50ee:	3f 63       	addc	#-1,	r15	;r3 As==11
    50f0:	82 4e cc 11 	mov	r14,	&0x11cc	
    50f4:	82 4f ce 11 	mov	r15,	&0x11ce	
    50f8:	3c 40 00 80 	mov	#-32768,r12	;#0x8000
    50fc:	0d 43       	clr	r13		
    50fe:	0a 3c       	jmp	$+22     	;abs 0x5114
    5100:	0c 43       	clr	r12		
    5102:	0d 43       	clr	r13		
    5104:	82 4a 84 12 	mov	r10,	&0x1284	
    5108:	82 4b 86 12 	mov	r11,	&0x1286	
    510c:	82 43 cc 11 	mov	#0,	&0x11cc	;r3 As==00
    5110:	82 43 ce 11 	mov	#0,	&0x11ce	;r3 As==00
    5114:	0a 4c       	mov	r12,	r10	
    5116:	b0 12 68 46 	call	#0x4668	
    511a:	0e 4f       	mov	r15,	r14	
    511c:	0e 88       	sub	r8,	r14	
    511e:	0e 9a       	cmp	r10,	r14	
    5120:	05 2c       	jc	$+12     	;abs 0x512c
    5122:	0c 4a       	mov	r10,	r12	
    5124:	0c 8e       	sub	r14,	r12	
    5126:	3c 90 03 00 	cmp	#3,	r12	;#0x0003
    512a:	06 2c       	jc	$+14     	;abs 0x5138
    512c:	b0 12 68 46 	call	#0x4668	
    5130:	2f 53       	incd	r15		
    5132:	82 4f 98 01 	mov	r15,	&0x0198	
    5136:	03 3c       	jmp	$+8      	;abs 0x513e
    5138:	0c 5f       	add	r15,	r12	
    513a:	82 4c 98 01 	mov	r12,	&0x0198	
    513e:	b2 f0 fe ff 88 01 	and	#-2,	&0x0188	;#0xfffe
    5144:	b2 d0 10 00 88 01 	bis	#16,	&0x0188	;#0x0010
    514a:	38 41       	pop	r8		
    514c:	39 41       	pop	r9		
    514e:	3a 41       	pop	r10		
    5150:	3b 41       	pop	r11		
    5152:	30 41       	ret			

00005154 <CC2420TransmitP__BackoffTimer__start>:
    5154:	0b 12       	push	r11		
    5156:	0a 12       	push	r10		
    5158:	09 12       	push	r9		
    515a:	08 12       	push	r8		
    515c:	21 83       	decd	r1		
    515e:	0a 4e       	mov	r14,	r10	
    5160:	0b 4f       	mov	r15,	r11	
    5162:	b0 12 26 50 	call	#0x5026	
    5166:	08 4e       	mov	r14,	r8	
    5168:	09 4f       	mov	r15,	r9	
    516a:	b0 12 46 4c 	call	#0x4c46	
    516e:	82 48 84 12 	mov	r8,	&0x1284	
    5172:	82 49 86 12 	mov	r9,	&0x1286	
    5176:	82 4a cc 11 	mov	r10,	&0x11cc	
    517a:	82 4b ce 11 	mov	r11,	&0x11ce	
    517e:	81 4f 00 00 	mov	r15,	0(r1)	;0x0000(r1)
    5182:	b0 12 70 50 	call	#0x5070	
    5186:	2f 41       	mov	@r1,	r15	
    5188:	b0 12 58 4c 	call	#0x4c58	
    518c:	21 53       	incd	r1		
    518e:	38 41       	pop	r8		
    5190:	39 41       	pop	r9		
    5192:	3a 41       	pop	r10		
    5194:	3b 41       	pop	r11		
    5196:	30 41       	ret			

00005198 <CC2420TransmitP__congestionBackoff>:
    5198:	0b 12       	push	r11		
    519a:	b0 12 46 4c 	call	#0x4c46	
    519e:	4b 4f       	mov.b	r15,	r11	
    51a0:	b0 12 60 45 	call	#0x4560	
    51a4:	3e 40 46 00 	mov	#70,	r14	;#0x0046
    51a8:	b0 12 82 87 	call	#0x8782	
    51ac:	0e 4f       	mov	r15,	r14	
    51ae:	3e 50 0b 00 	add	#11,	r14	;#0x000b
    51b2:	82 4e 4e 13 	mov	r14,	&0x134e	
    51b6:	0f 43       	clr	r15		
    51b8:	b0 12 54 51 	call	#0x5154	
    51bc:	4f 4b       	mov.b	r11,	r15	
    51be:	b0 12 58 4c 	call	#0x4c58	
    51c2:	3b 41       	pop	r11		
    51c4:	30 41       	ret			

000051c6 <CC2420TransmitP__attemptSend>:
    51c6:	0b 12       	push	r11		
    51c8:	0a 12       	push	r10		
    51ca:	b0 12 46 4c 	call	#0x4c46	
    51ce:	4a 4f       	mov.b	r15,	r10	
    51d0:	b2 92 36 11 	cmp	#8,	&0x1136	;r2 As==11
    51d4:	12 20       	jnz	$+38     	;abs 0x51fa
    51d6:	7f 40 09 00 	mov.b	#9,	r15	;#0x0009
    51da:	b0 12 f6 4c 	call	#0x4cf6	
    51de:	b0 12 1a 50 	call	#0x501a	
    51e2:	b0 12 50 4f 	call	#0x4f50	
    51e6:	92 43 36 11 	mov	#1,	&0x1136	;r3 As==01
    51ea:	7f 40 03 00 	mov.b	#3,	r15	;#0x0003
    51ee:	b0 12 1a 4f 	call	#0x4f1a	
    51f2:	4f 4a       	mov.b	r10,	r15	
    51f4:	b0 12 58 4c 	call	#0x4c58	
    51f8:	2f 3c       	jmp	$+96     	;abs 0x5258
    51fa:	b0 12 26 4d 	call	#0x4d26	
    51fe:	c2 93 52 13 	tst.b	&0x1352	
    5202:	03 24       	jz	$+8      	;abs 0x520a
    5204:	7f 40 05 00 	mov.b	#5,	r15	;#0x0005
    5208:	01 3c       	jmp	$+4      	;abs 0x520c
    520a:	6f 42       	mov.b	#4,	r15	;r2 As==10
    520c:	b0 12 f6 4c 	call	#0x4cf6	
    5210:	4e 4f       	mov.b	r15,	r14	
    5212:	3e f2       	and	#8,	r14	;r2 As==11
    5214:	05 20       	jnz	$+12     	;abs 0x5220
    5216:	4f 43       	clr.b	r15		
    5218:	b0 12 f6 4c 	call	#0x4cf6	
    521c:	3f f2       	and	#8,	r15	;r2 As==11
    521e:	04 20       	jnz	$+10     	;abs 0x5228
    5220:	5b 43       	mov.b	#1,	r11	;r3 As==01
    5222:	3f 40 03 00 	mov	#3,	r15	;#0x0003
    5226:	03 3c       	jmp	$+8      	;abs 0x522e
    5228:	4b 43       	clr.b	r11		
    522a:	3f 40 05 00 	mov	#5,	r15	;#0x0005
    522e:	82 4f 36 11 	mov	r15,	&0x1136	
    5232:	b0 12 50 4f 	call	#0x4f50	
    5236:	4f 4a       	mov.b	r10,	r15	
    5238:	b0 12 58 4c 	call	#0x4c58	
    523c:	4b 93       	tst.b	r11		
    523e:	07 24       	jz	$+16     	;abs 0x524e
    5240:	c2 43 6a 11 	mov.b	#0,	&0x116a	;r3 As==00
    5244:	b0 12 1a 50 	call	#0x501a	
    5248:	b0 12 98 51 	call	#0x5198	
    524c:	05 3c       	jmp	$+12     	;abs 0x5258
    524e:	3e 40 40 01 	mov	#320,	r14	;#0x0140
    5252:	0f 43       	clr	r15		
    5254:	b0 12 54 51 	call	#0x5154	
    5258:	3a 41       	pop	r10		
    525a:	3b 41       	pop	r11		
    525c:	30 41       	ret			

0000525e <TransformCounterC__0__Counter__get>:
    525e:	0b 12       	push	r11		
    5260:	0a 12       	push	r10		
    5262:	09 12       	push	r9		
    5264:	08 12       	push	r8		
    5266:	07 12       	push	r7		
    5268:	b0 12 46 4c 	call	#0x4c46	
    526c:	47 4f       	mov.b	r15,	r7	
    526e:	1a 42 02 12 	mov	&0x1202,r10	
    5272:	1b 42 04 12 	mov	&0x1204,r11	
    5276:	b0 12 68 46 	call	#0x4668	
    527a:	0d 4f       	mov	r15,	r13	
    527c:	1f 42 80 01 	mov	&0x0180,r15	
    5280:	5f f3       	and.b	#1,	r15	;r3 As==01
    5282:	05 24       	jz	$+12     	;abs 0x528e
    5284:	1a 53       	inc	r10		
    5286:	0b 63       	adc	r11		
    5288:	b0 12 68 46 	call	#0x4668	
    528c:	0d 4f       	mov	r15,	r13	
    528e:	12 c3       	clrc			
    5290:	0d 10       	rrc	r13		
    5292:	12 c3       	clrc			
    5294:	0d 10       	rrc	r13		
    5296:	12 c3       	clrc			
    5298:	0d 10       	rrc	r13		
    529a:	12 c3       	clrc			
    529c:	0d 10       	rrc	r13		
    529e:	12 c3       	clrc			
    52a0:	0d 10       	rrc	r13		
    52a2:	08 4d       	mov	r13,	r8	
    52a4:	09 43       	clr	r9		
    52a6:	0e 4a       	mov	r10,	r14	
    52a8:	0f 4b       	mov	r11,	r15	
    52aa:	4f ea       	xor.b	r10,	r15	
    52ac:	0f ea       	xor	r10,	r15	
    52ae:	8f 10       	swpb	r15		
    52b0:	4e 4e       	mov.b	r14,	r14	
    52b2:	8e 10       	swpb	r14		
    52b4:	0e 5e       	rla	r14		
    52b6:	0f 6f       	rlc	r15		
    52b8:	0e 5e       	rla	r14		
    52ba:	0f 6f       	rlc	r15		
    52bc:	0e 5e       	rla	r14		
    52be:	0f 6f       	rlc	r15		
    52c0:	08 de       	bis	r14,	r8	
    52c2:	09 df       	bis	r15,	r9	
    52c4:	4f 47       	mov.b	r7,	r15	
    52c6:	b0 12 58 4c 	call	#0x4c58	
    52ca:	0e 48       	mov	r8,	r14	
    52cc:	0f 49       	mov	r9,	r15	
    52ce:	37 41       	pop	r7		
    52d0:	38 41       	pop	r8		
    52d2:	39 41       	pop	r9		
    52d4:	3a 41       	pop	r10		
    52d6:	3b 41       	pop	r11		
    52d8:	30 41       	ret			

000052da <TransformAlarmC__1__set_alarm>:
    52da:	0b 12       	push	r11		
    52dc:	0a 12       	push	r10		
    52de:	09 12       	push	r9		
    52e0:	08 12       	push	r8		
    52e2:	b0 12 5e 52 	call	#0x525e	
    52e6:	08 4e       	mov	r14,	r8	
    52e8:	09 4f       	mov	r15,	r9	
    52ea:	1e 42 66 11 	mov	&0x1166,r14	
    52ee:	1f 42 68 11 	mov	&0x1168,r15	
    52f2:	0a 4e       	mov	r14,	r10	
    52f4:	0b 4f       	mov	r15,	r11	
    52f6:	1a 52 b8 11 	add	&0x11b8,r10	
    52fa:	1b 62 ba 11 	addc	&0x11ba,r11	
    52fe:	09 9f       	cmp	r15,	r9	
    5300:	09 28       	jnc	$+20     	;abs 0x5314
    5302:	02 20       	jnz	$+6      	;abs 0x5308
    5304:	08 9e       	cmp	r14,	r8	
    5306:	06 28       	jnc	$+14     	;abs 0x5314
    5308:	0b 9f       	cmp	r15,	r11	
    530a:	10 28       	jnc	$+34     	;abs 0x532c
    530c:	09 20       	jnz	$+20     	;abs 0x5320
    530e:	0a 9e       	cmp	r14,	r10	
    5310:	0d 28       	jnc	$+28     	;abs 0x532c
    5312:	06 3c       	jmp	$+14     	;abs 0x5320
    5314:	0b 9f       	cmp	r15,	r11	
    5316:	04 28       	jnc	$+10     	;abs 0x5320
    5318:	0f 9b       	cmp	r11,	r15	
    531a:	27 28       	jnc	$+80     	;abs 0x536a
    531c:	0a 9e       	cmp	r14,	r10	
    531e:	25 2c       	jc	$+76     	;abs 0x536a
    5320:	09 9b       	cmp	r11,	r9	
    5322:	04 28       	jnc	$+10     	;abs 0x532c
    5324:	0b 99       	cmp	r9,	r11	
    5326:	21 28       	jnc	$+68     	;abs 0x536a
    5328:	08 9a       	cmp	r10,	r8	
    532a:	1f 2c       	jc	$+64     	;abs 0x536a
    532c:	0c 4a       	mov	r10,	r12	
    532e:	0d 4b       	mov	r11,	r13	
    5330:	0c 88       	sub	r8,	r12	
    5332:	0d 79       	subc	r9,	r13	
    5334:	0d 93       	tst	r13		
    5336:	03 20       	jnz	$+8      	;abs 0x533e
    5338:	3c 90 01 04 	cmp	#1025,	r12	;#0x0401
    533c:	18 28       	jnc	$+50     	;abs 0x536e
    533e:	0e 48       	mov	r8,	r14	
    5340:	0f 49       	mov	r9,	r15	
    5342:	3e 50 00 04 	add	#1024,	r14	;#0x0400
    5346:	0f 63       	adc	r15		
    5348:	82 4e 66 11 	mov	r14,	&0x1166	
    534c:	82 4f 68 11 	mov	r15,	&0x1168	
    5350:	0e 4c       	mov	r12,	r14	
    5352:	0f 4d       	mov	r13,	r15	
    5354:	3e 50 00 fc 	add	#-1024,	r14	;#0xfc00
    5358:	3f 63       	addc	#-1,	r15	;r3 As==11
    535a:	82 4e b8 11 	mov	r14,	&0x11b8	
    535e:	82 4f ba 11 	mov	r15,	&0x11ba	
    5362:	3c 40 00 04 	mov	#1024,	r12	;#0x0400
    5366:	0d 43       	clr	r13		
    5368:	0a 3c       	jmp	$+22     	;abs 0x537e
    536a:	0c 43       	clr	r12		
    536c:	0d 43       	clr	r13		
    536e:	82 4a 66 11 	mov	r10,	&0x1166	
    5372:	82 4b 68 11 	mov	r11,	&0x1168	
    5376:	82 43 b8 11 	mov	#0,	&0x11b8	;r3 As==00
    537a:	82 43 ba 11 	mov	#0,	&0x11ba	;r3 As==00
    537e:	0a 4c       	mov	r12,	r10	
    5380:	0a 5a       	rla	r10		
    5382:	0a 5a       	rla	r10		
    5384:	0a 5a       	rla	r10		
    5386:	0a 5a       	rla	r10		
    5388:	0a 5a       	rla	r10		
    538a:	b0 12 68 46 	call	#0x4668	
    538e:	08 58       	rla	r8		
    5390:	08 58       	rla	r8		
    5392:	08 58       	rla	r8		
    5394:	08 58       	rla	r8		
    5396:	08 58       	rla	r8		
    5398:	0e 4f       	mov	r15,	r14	
    539a:	0e 88       	sub	r8,	r14	
    539c:	0e 9a       	cmp	r10,	r14	
    539e:	04 2c       	jc	$+10     	;abs 0x53a8
    53a0:	0a 8e       	sub	r14,	r10	
    53a2:	3a 90 03 00 	cmp	#3,	r10	;#0x0003
    53a6:	06 2c       	jc	$+14     	;abs 0x53b4
    53a8:	b0 12 68 46 	call	#0x4668	
    53ac:	2f 53       	incd	r15		
    53ae:	82 4f 96 01 	mov	r15,	&0x0196	
    53b2:	03 3c       	jmp	$+8      	;abs 0x53ba
    53b4:	0a 5f       	add	r15,	r10	
    53b6:	82 4a 96 01 	mov	r10,	&0x0196	
    53ba:	b2 f0 fe ff 86 01 	and	#-2,	&0x0186	;#0xfffe
    53c0:	b2 d0 10 00 86 01 	bis	#16,	&0x0186	;#0x0010
    53c6:	38 41       	pop	r8		
    53c8:	39 41       	pop	r9		
    53ca:	3a 41       	pop	r10		
    53cc:	3b 41       	pop	r11		
    53ce:	30 41       	ret			

000053d0 <AdcStreamP__nextAlarm>:
    53d0:	92 42 46 13 66 11 	mov	&0x1346,&0x1166	
    53d6:	92 42 48 13 68 11 	mov	&0x1348,&0x1168	
    53dc:	92 42 68 12 b8 11 	mov	&0x1268,&0x11b8	
    53e2:	92 42 6a 12 ba 11 	mov	&0x126a,&0x11ba	
    53e8:	b0 12 da 52 	call	#0x52da	
    53ec:	92 52 68 12 46 13 	add	&0x1268,&0x1346	
    53f2:	92 62 6a 12 48 13 	addc	&0x126a,&0x1348	
    53f8:	30 41       	ret			

000053fa <TransformAlarmC__0__set_alarm>:
    53fa:	0b 12       	push	r11		
    53fc:	0a 12       	push	r10		
    53fe:	09 12       	push	r9		
    5400:	08 12       	push	r8		
    5402:	b0 12 5e 52 	call	#0x525e	
    5406:	08 4e       	mov	r14,	r8	
    5408:	09 4f       	mov	r15,	r9	
    540a:	1e 42 ea 11 	mov	&0x11ea,r14	
    540e:	1f 42 ec 11 	mov	&0x11ec,r15	
    5412:	0a 4e       	mov	r14,	r10	
    5414:	0b 4f       	mov	r15,	r11	
    5416:	1a 52 e4 11 	add	&0x11e4,r10	
    541a:	1b 62 e6 11 	addc	&0x11e6,r11	
    541e:	09 9f       	cmp	r15,	r9	
    5420:	09 28       	jnc	$+20     	;abs 0x5434
    5422:	02 20       	jnz	$+6      	;abs 0x5428
    5424:	08 9e       	cmp	r14,	r8	
    5426:	06 28       	jnc	$+14     	;abs 0x5434
    5428:	0b 9f       	cmp	r15,	r11	
    542a:	10 28       	jnc	$+34     	;abs 0x544c
    542c:	09 20       	jnz	$+20     	;abs 0x5440
    542e:	0a 9e       	cmp	r14,	r10	
    5430:	0d 28       	jnc	$+28     	;abs 0x544c
    5432:	06 3c       	jmp	$+14     	;abs 0x5440
    5434:	0b 9f       	cmp	r15,	r11	
    5436:	04 28       	jnc	$+10     	;abs 0x5440
    5438:	0f 9b       	cmp	r11,	r15	
    543a:	27 28       	jnc	$+80     	;abs 0x548a
    543c:	0a 9e       	cmp	r14,	r10	
    543e:	25 2c       	jc	$+76     	;abs 0x548a
    5440:	09 9b       	cmp	r11,	r9	
    5442:	04 28       	jnc	$+10     	;abs 0x544c
    5444:	0b 99       	cmp	r9,	r11	
    5446:	21 28       	jnc	$+68     	;abs 0x548a
    5448:	08 9a       	cmp	r10,	r8	
    544a:	1f 2c       	jc	$+64     	;abs 0x548a
    544c:	0c 4a       	mov	r10,	r12	
    544e:	0d 4b       	mov	r11,	r13	
    5450:	0c 88       	sub	r8,	r12	
    5452:	0d 79       	subc	r9,	r13	
    5454:	0d 93       	tst	r13		
    5456:	03 20       	jnz	$+8      	;abs 0x545e
    5458:	3c 90 01 04 	cmp	#1025,	r12	;#0x0401
    545c:	18 28       	jnc	$+50     	;abs 0x548e
    545e:	0e 48       	mov	r8,	r14	
    5460:	0f 49       	mov	r9,	r15	
    5462:	3e 50 00 04 	add	#1024,	r14	;#0x0400
    5466:	0f 63       	adc	r15		
    5468:	82 4e ea 11 	mov	r14,	&0x11ea	
    546c:	82 4f ec 11 	mov	r15,	&0x11ec	
    5470:	0e 4c       	mov	r12,	r14	
    5472:	0f 4d       	mov	r13,	r15	
    5474:	3e 50 00 fc 	add	#-1024,	r14	;#0xfc00
    5478:	3f 63       	addc	#-1,	r15	;r3 As==11
    547a:	82 4e e4 11 	mov	r14,	&0x11e4	
    547e:	82 4f e6 11 	mov	r15,	&0x11e6	
    5482:	3c 40 00 04 	mov	#1024,	r12	;#0x0400
    5486:	0d 43       	clr	r13		
    5488:	0a 3c       	jmp	$+22     	;abs 0x549e
    548a:	0c 43       	clr	r12		
    548c:	0d 43       	clr	r13		
    548e:	82 4a ea 11 	mov	r10,	&0x11ea	
    5492:	82 4b ec 11 	mov	r11,	&0x11ec	
    5496:	82 43 e4 11 	mov	#0,	&0x11e4	;r3 As==00
    549a:	82 43 e6 11 	mov	#0,	&0x11e6	;r3 As==00
    549e:	0a 4c       	mov	r12,	r10	
    54a0:	0a 5a       	rla	r10		
    54a2:	0a 5a       	rla	r10		
    54a4:	0a 5a       	rla	r10		
    54a6:	0a 5a       	rla	r10		
    54a8:	0a 5a       	rla	r10		
    54aa:	b0 12 68 46 	call	#0x4668	
    54ae:	08 58       	rla	r8		
    54b0:	08 58       	rla	r8		
    54b2:	08 58       	rla	r8		
    54b4:	08 58       	rla	r8		
    54b6:	08 58       	rla	r8		
    54b8:	0e 4f       	mov	r15,	r14	
    54ba:	0e 88       	sub	r8,	r14	
    54bc:	0e 9a       	cmp	r10,	r14	
    54be:	04 2c       	jc	$+10     	;abs 0x54c8
    54c0:	0a 8e       	sub	r14,	r10	
    54c2:	3a 90 03 00 	cmp	#3,	r10	;#0x0003
    54c6:	06 2c       	jc	$+14     	;abs 0x54d4
    54c8:	b0 12 68 46 	call	#0x4668	
    54cc:	2f 53       	incd	r15		
    54ce:	82 4f 92 01 	mov	r15,	&0x0192	
    54d2:	03 3c       	jmp	$+8      	;abs 0x54da
    54d4:	0a 5f       	add	r15,	r10	
    54d6:	82 4a 92 01 	mov	r10,	&0x0192	
    54da:	b2 f0 fe ff 82 01 	and	#-2,	&0x0182	;#0xfffe
    54e0:	b2 d0 10 00 82 01 	bis	#16,	&0x0182	;#0x0010
    54e6:	38 41       	pop	r8		
    54e8:	39 41       	pop	r9		
    54ea:	3a 41       	pop	r10		
    54ec:	3b 41       	pop	r11		
    54ee:	30 41       	ret			

000054f0 <VirtualizeTimerC__0__Timer__startOneShot>:
    54f0:	0b 12       	push	r11		
    54f2:	09 12       	push	r9		
    54f4:	08 12       	push	r8		
    54f6:	4b 4f       	mov.b	r15,	r11	
    54f8:	08 4d       	mov	r13,	r8	
    54fa:	09 4e       	mov	r14,	r9	
    54fc:	b0 12 5e 52 	call	#0x525e	
    5500:	4b 4b       	mov.b	r11,	r11	
    5502:	0b 5b       	rla	r11		
    5504:	0c 4b       	mov	r11,	r12	
    5506:	0c 5c       	rla	r12		
    5508:	0c 5c       	rla	r12		
    550a:	0c 5b       	add	r11,	r12	
    550c:	3c 50 0c 12 	add	#4620,	r12	;#0x120c
    5510:	8c 4e 00 00 	mov	r14,	0(r12)	;0x0000(r12)
    5514:	8c 4f 02 00 	mov	r15,	2(r12)	;0x0002(r12)
    5518:	8c 48 04 00 	mov	r8,	4(r12)	;0x0004(r12)
    551c:	8c 49 06 00 	mov	r9,	6(r12)	;0x0006(r12)
    5520:	fc d0 03 00 08 00 	bis.b	#3,	8(r12)	;#0x0003, 0x0008(r12)
    5526:	6f 43       	mov.b	#2,	r15	;r3 As==10
    5528:	b0 12 36 4d 	call	#0x4d36	
    552c:	38 41       	pop	r8		
    552e:	39 41       	pop	r9		
    5530:	3b 41       	pop	r11		
    5532:	30 41       	ret			

00005534 <VirtualizeTimerC__0__Timer__startPeriodic>:
    5534:	0b 12       	push	r11		
    5536:	09 12       	push	r9		
    5538:	08 12       	push	r8		
    553a:	4b 4f       	mov.b	r15,	r11	
    553c:	08 4d       	mov	r13,	r8	
    553e:	09 4e       	mov	r14,	r9	
    5540:	b0 12 5e 52 	call	#0x525e	
    5544:	4b 4b       	mov.b	r11,	r11	
    5546:	0b 5b       	rla	r11		
    5548:	0c 4b       	mov	r11,	r12	
    554a:	0c 5c       	rla	r12		
    554c:	0c 5c       	rla	r12		
    554e:	0c 5b       	add	r11,	r12	
    5550:	3c 50 0c 12 	add	#4620,	r12	;#0x120c
    5554:	8c 4e 00 00 	mov	r14,	0(r12)	;0x0000(r12)
    5558:	8c 4f 02 00 	mov	r15,	2(r12)	;0x0002(r12)
    555c:	8c 48 04 00 	mov	r8,	4(r12)	;0x0004(r12)
    5560:	8c 49 06 00 	mov	r9,	6(r12)	;0x0006(r12)
    5564:	5f 4c 08 00 	mov.b	8(r12),	r15	;0x0008(r12)
    5568:	7f f0 fe ff 	and.b	#-2,	r15	;#0xfffe
    556c:	6f d3       	bis.b	#2,	r15	;r3 As==10
    556e:	cc 4f 08 00 	mov.b	r15,	8(r12)	;0x0008(r12)
    5572:	6f 43       	mov.b	#2,	r15	;r3 As==10
    5574:	b0 12 36 4d 	call	#0x4d36	
    5578:	38 41       	pop	r8		
    557a:	39 41       	pop	r9		
    557c:	3b 41       	pop	r11		
    557e:	30 41       	ret			

00005580 <AdcStreamP__nextBuffer>:
    5580:	0b 12       	push	r11		
    5582:	0a 12       	push	r10		
    5584:	09 12       	push	r9		
    5586:	49 4f       	mov.b	r15,	r9	
    5588:	b0 12 46 4c 	call	#0x4c46	
    558c:	4b 4f       	mov.b	r15,	r11	
    558e:	5e 42 10 11 	mov.b	&0x1110,r14	
    5592:	0e 5e       	rla	r14		
    5594:	0c 4e       	mov	r14,	r12	
    5596:	3c 50 88 11 	add	#4488,	r12	;#0x1188
    559a:	2d 4c       	mov	@r12,	r13	
    559c:	0d 93       	tst	r13		
    559e:	0b 20       	jnz	$+24     	;abs 0x55b6
    55a0:	8e 43 2a 13 	mov	#0,	4906(r14);r3 As==00, 0x132a(r14)
    55a4:	7f 40 0c 00 	mov.b	#12,	r15	;#0x000c
    55a8:	b0 12 36 4d 	call	#0x4d36	
    55ac:	4f 4b       	mov.b	r11,	r15	
    55ae:	b0 12 58 4c 	call	#0x4c58	
    55b2:	5f 43       	mov.b	#1,	r15	;r3 As==01
    55b4:	16 3c       	jmp	$+46     	;abs 0x55e2
    55b6:	1a 4d 02 00 	mov	2(r13),	r10	;0x0002(r13)
    55ba:	8c 4a 00 00 	mov	r10,	0(r12)	;0x0000(r12)
    55be:	0a 93       	tst	r10		
    55c0:	02 20       	jnz	$+6      	;abs 0x55c6
    55c2:	8e 4c 2a 13 	mov	r12,	4906(r14);0x132a(r14)
    55c6:	a2 4d 6e 12 	mov	@r13,	&0x126e	
    55ca:	82 4d d2 12 	mov	r13,	&0x12d2	
    55ce:	82 4d 86 11 	mov	r13,	&0x1186	
    55d2:	49 93       	tst.b	r9		
    55d4:	02 24       	jz	$+6      	;abs 0x55da
    55d6:	b0 12 d0 53 	call	#0x53d0	
    55da:	4f 4b       	mov.b	r11,	r15	
    55dc:	b0 12 58 4c 	call	#0x4c58	
    55e0:	4f 43       	clr.b	r15		
    55e2:	39 41       	pop	r9		
    55e4:	3a 41       	pop	r10		
    55e6:	3b 41       	pop	r11		
    55e8:	30 41       	ret			

000055ea <AdcStreamP__SingleChannel__singleDataReady.isra.208>:
    55ea:	0b 12       	push	r11		
    55ec:	5b 42 10 11 	mov.b	&0x1110,r11	
    55f0:	6b 93       	cmp.b	#2,	r11	;r3 As==10
    55f2:	35 24       	jz	$+108    	;abs 0x565e
    55f4:	82 93 6e 12 	tst	&0x126e	
    55f8:	07 20       	jnz	$+16     	;abs 0x5608
    55fa:	b0 12 5e 52 	call	#0x525e	
    55fe:	82 4e 46 13 	mov	r14,	&0x1346	
    5602:	82 4f 48 13 	mov	r15,	&0x1348	
    5606:	25 3c       	jmp	$+76     	;abs 0x5652
    5608:	1e 42 86 11 	mov	&0x1186,r14	
    560c:	8e 4f 00 00 	mov	r15,	0(r14)	;0x0000(r14)
    5610:	0f 4e       	mov	r14,	r15	
    5612:	2f 53       	incd	r15		
    5614:	82 4f 86 11 	mov	r15,	&0x1186	
    5618:	1d 42 d2 12 	mov	&0x12d2,r13	
    561c:	1c 42 6e 12 	mov	&0x126e,r12	
    5620:	0e 4c       	mov	r12,	r14	
    5622:	0e 5e       	rla	r14		
    5624:	0e 5d       	add	r13,	r14	
    5626:	0f 9e       	cmp	r14,	r15	
    5628:	18 20       	jnz	$+50     	;abs 0x565a
    562a:	82 93 de 11 	tst	&0x11de	
    562e:	09 24       	jz	$+20     	;abs 0x5642
    5630:	4f 4b       	mov.b	r11,	r15	
    5632:	0f 5f       	rla	r15		
    5634:	8f 43 2a 13 	mov	#0,	4906(r15);r3 As==00, 0x132a(r15)
    5638:	7f 40 0d 00 	mov.b	#13,	r15	;#0x000d
    563c:	b0 12 36 4d 	call	#0x4d36	
    5640:	0e 3c       	jmp	$+30     	;abs 0x565e
    5642:	82 4c 38 13 	mov	r12,	&0x1338	
    5646:	82 4d de 11 	mov	r13,	&0x11de	
    564a:	7f 40 0e 00 	mov.b	#14,	r15	;#0x000e
    564e:	b0 12 36 4d 	call	#0x4d36	
    5652:	5f 43       	mov.b	#1,	r15	;r3 As==01
    5654:	b0 12 80 55 	call	#0x5580	
    5658:	02 3c       	jmp	$+6      	;abs 0x565e
    565a:	b0 12 d0 53 	call	#0x53d0	
    565e:	5f 43       	mov.b	#1,	r15	;r3 As==01
    5660:	3b 41       	pop	r11		
    5662:	30 41       	ret			

00005664 <Msp430Adc12ImplP__SingleChannel__singleDataReady>:
    5664:	7f 90 05 00 	cmp.b	#5,	r15	;#0x0005
    5668:	10 2c       	jc	$+34     	;abs 0x568a
    566a:	4f 4f       	mov.b	r15,	r15	
    566c:	0f 5f       	rla	r15		
    566e:	10 4f 0e 9f 	br	-24818(r15)	;0x9f0e(r15)
    5672:	4f 43       	clr.b	r15		
    5674:	07 3c       	jmp	$+16     	;abs 0x5684
    5676:	5f 43       	mov.b	#1,	r15	;r3 As==01
    5678:	05 3c       	jmp	$+12     	;abs 0x5684
    567a:	0f 4e       	mov	r14,	r15	
    567c:	b0 12 ea 55 	call	#0x55ea	
    5680:	30 41       	ret			
    5682:	6f 43       	mov.b	#2,	r15	;r3 As==10
    5684:	b0 12 40 4e 	call	#0x4e40	
    5688:	30 41       	ret			
    568a:	5f 43       	mov.b	#1,	r15	;r3 As==01
    568c:	30 41       	ret			

0000568e <Msp430Adc12ImplP__SingleChannel__configureMultiple.part.211>:
    568e:	0b 12       	push	r11		
    5690:	0a 12       	push	r10		
    5692:	09 12       	push	r9		
    5694:	08 12       	push	r8		
    5696:	07 12       	push	r7		
    5698:	06 12       	push	r6		
    569a:	05 12       	push	r5		
    569c:	04 12       	push	r4		
    569e:	21 82       	sub	#4,	r1	;r2 As==10
    56a0:	4b 4f       	mov.b	r15,	r11	
    56a2:	07 4e       	mov	r14,	r7	
    56a4:	81 4d 02 00 	mov	r13,	2(r1)	;0x0002(r1)
    56a8:	06 4c       	mov	r12,	r6	
    56aa:	15 41 16 00 	mov	22(r1),	r5	;0x0016(r1)
    56ae:	b0 12 46 4c 	call	#0x4c46	
    56b2:	c1 4f 00 00 	mov.b	r15,	0(r1)	;0x0000(r1)
    56b6:	5e 42 fe 11 	mov.b	&0x11fe,r14	
    56ba:	3e f0 20 00 	and	#32,	r14	;#0x0020
    56be:	05 24       	jz	$+12     	;abs 0x56ca
    56c0:	b0 12 58 4c 	call	#0x4c58	
    56c4:	7b 40 05 00 	mov.b	#5,	r11	;#0x0005
    56c8:	df 3c       	jmp	$+448    	;abs 0x5888
    56ca:	e2 93 4c 11 	cmp.b	#2,	&0x114c	;r3 As==10
    56ce:	03 20       	jnz	$+8      	;abs 0x56d6
    56d0:	5e 42 12 11 	mov.b	&0x1112,r14	
    56d4:	01 3c       	jmp	$+4      	;abs 0x56d8
    56d6:	7e 43       	mov.b	#-1,	r14	;r3 As==11
    56d8:	4e 9b       	cmp.b	r11,	r14	
    56da:	d0 20       	jnz	$+418    	;abs 0x587c
    56dc:	36 90 11 00 	cmp	#17,	r6	;#0x0011
    56e0:	03 28       	jnc	$+8      	;abs 0x56e8
    56e2:	78 40 03 00 	mov.b	#3,	r8	;#0x0003
    56e6:	01 3c       	jmp	$+4      	;abs 0x56ea
    56e8:	58 43       	mov.b	#1,	r8	;r3 As==01
    56ea:	38 f0 03 00 	and	#3,	r8	;#0x0003
    56ee:	08 58       	rla	r8		
    56f0:	5a 47 01 00 	mov.b	1(r7),	r10	;0x0001(r7)
    56f4:	3a f0 03 00 	and	#3,	r10	;#0x0003
    56f8:	0a 5a       	rla	r10		
    56fa:	0a 5a       	rla	r10		
    56fc:	0a 5a       	rla	r10		
    56fe:	5b 47 01 00 	mov.b	1(r7),	r11	;0x0001(r7)
    5702:	12 c3       	clrc			
    5704:	4b 10       	rrc.b	r11		
    5706:	12 c3       	clrc			
    5708:	4b 10       	rrc.b	r11		
    570a:	3b f0 07 00 	and	#7,	r11	;#0x0007
    570e:	0b 5b       	rla	r11		
    5710:	0b 5b       	rla	r11		
    5712:	0b 5b       	rla	r11		
    5714:	0b 5b       	rla	r11		
    5716:	0b 5b       	rla	r11		
    5718:	08 da       	bis	r10,	r8	
    571a:	08 db       	bis	r11,	r8	
    571c:	38 d0 00 02 	bis	#512,	r8	;#0x0200
    5720:	5b 43       	mov.b	#1,	r11	;r3 As==01
    5722:	05 93       	tst	r5		
    5724:	01 20       	jnz	$+4      	;abs 0x5728
    5726:	4b 43       	clr.b	r11		
    5728:	1b f3       	and	#1,	r11	;r3 As==01
    572a:	8b 10       	swpb	r11		
    572c:	0b 5b       	rla	r11		
    572e:	0b 5b       	rla	r11		
    5730:	38 f0 ff f3 	and	#-3073,	r8	;#0xf3ff
    5734:	08 db       	bis	r11,	r8	
    5736:	64 47       	mov.b	@r7,	r4	
    5738:	74 f0 7f 00 	and.b	#127,	r4	;#0x007f
    573c:	b0 12 ea 45 	call	#0x45ea	
    5740:	09 4f       	mov	r15,	r9	
    5742:	5b 43       	mov.b	#1,	r11	;r3 As==01
    5744:	05 93       	tst	r5		
    5746:	01 24       	jz	$+4      	;abs 0x574a
    5748:	4b 43       	clr.b	r11		
    574a:	1b f3       	and	#1,	r11	;r3 As==01
    574c:	7c 40 07 00 	mov.b	#7,	r12	;#0x0007
    5750:	0b 5b       	rla	r11		
    5752:	7c 53       	add.b	#-1,	r12	;r3 As==11
    5754:	fd 23       	jnz	$-4      	;abs 0x5750
    5756:	39 f0 7f ff 	and	#-129,	r9	;#0xff7f
    575a:	09 db       	bis	r11,	r9	
    575c:	5b 47 01 00 	mov.b	1(r7),	r11	;0x0001(r7)
    5760:	12 c3       	clrc			
    5762:	4b 10       	rrc.b	r11		
    5764:	12 c3       	clrc			
    5766:	4b 10       	rrc.b	r11		
    5768:	12 c3       	clrc			
    576a:	4b 10       	rrc.b	r11		
    576c:	12 c3       	clrc			
    576e:	4b 10       	rrc.b	r11		
    5770:	12 c3       	clrc			
    5772:	4b 10       	rrc.b	r11		
    5774:	5a 47 02 00 	mov.b	2(r7),	r10	;0x0002(r7)
    5778:	1a f3       	and	#1,	r10	;r3 As==01
    577a:	0a 5a       	rla	r10		
    577c:	0a 5a       	rla	r10		
    577e:	0a 5a       	rla	r10		
    5780:	4b da       	bis.b	r10,	r11	
    5782:	4b 4b       	mov.b	r11,	r11	
    5784:	0f 4b       	mov	r11,	r15	
    5786:	8f 10       	swpb	r15		
    5788:	39 f0 ff f0 	and	#-3841,	r9	;#0xf0ff
    578c:	09 df       	bis	r15,	r9	
    578e:	0b 4f       	mov	r15,	r11	
    5790:	0b 5b       	rla	r11		
    5792:	0b 5b       	rla	r11		
    5794:	0b 5b       	rla	r11		
    5796:	0b 5b       	rla	r11		
    5798:	39 f0 ff 0f 	and	#4095,	r9	;#0x0fff
    579c:	e2 42 fe 11 	mov.b	#4,	&0x11fe	;r2 As==10
    57a0:	82 46 8c 11 	mov	r6,	&0x118c	
    57a4:	92 41 02 00 f6 11 	mov	2(r1),	&0x11f6	;0x0002(r1)
    57aa:	82 43 82 11 	mov	#0,	&0x1182	;r3 As==00
    57ae:	0f 49       	mov	r9,	r15	
    57b0:	0f db       	bis	r11,	r15	
    57b2:	b0 12 e4 45 	call	#0x45e4	
    57b6:	0f 48       	mov	r8,	r15	
    57b8:	b0 12 de 45 	call	#0x45de	
    57bc:	0b 43       	clr	r11		
    57be:	36 53       	add	#-1,	r6	;r3 As==11
    57c0:	04 3c       	jmp	$+10     	;abs 0x57ca
    57c2:	4f 4b       	mov.b	r11,	r15	
    57c4:	b0 12 50 46 	call	#0x4650	
    57c8:	1b 53       	inc	r11		
    57ca:	4e 44       	mov.b	r4,	r14	
    57cc:	0b 96       	cmp	r6,	r11	
    57ce:	03 2c       	jc	$+8      	;abs 0x57d6
    57d0:	3b 90 0f 00 	cmp	#15,	r11	;#0x000f
    57d4:	f6 23       	jnz	$-18     	;abs 0x57c2
    57d6:	7e d0 80 ff 	bis.b	#-128,	r14	;#0xff80
    57da:	4f 4b       	mov.b	r11,	r15	
    57dc:	b0 12 50 46 	call	#0x4650	
    57e0:	1d 43       	mov	#1,	r13	;r3 As==01
    57e2:	7b f0 0f 00 	and.b	#15,	r11	;#0x000f
    57e6:	4b 93       	tst.b	r11		
    57e8:	03 24       	jz	$+8      	;abs 0x57f0
    57ea:	0d 5d       	rla	r13		
    57ec:	7b 53       	add.b	#-1,	r11	;r3 As==11
    57ee:	fb 3f       	jmp	$-8      	;abs 0x57e6
    57f0:	82 4d a6 01 	mov	r13,	&0x01a6	
    57f4:	05 93       	tst	r5		
    57f6:	44 24       	jz	$+138    	;abs 0x5880
    57f8:	f2 d0 40 00 fe 11 	bis.b	#64,	&0x11fe	;#0x0040
    57fe:	5d 47 02 00 	mov.b	2(r7),	r13	;0x0002(r7)
    5802:	4e 4d       	mov.b	r13,	r14	
    5804:	12 c3       	clrc			
    5806:	4e 10       	rrc.b	r14		
    5808:	12 c3       	clrc			
    580a:	4e 10       	rrc.b	r14		
    580c:	12 c3       	clrc			
    580e:	4e 10       	rrc.b	r14		
    5810:	0b 4e       	mov	r14,	r11	
    5812:	3b f0 03 00 	and	#3,	r11	;#0x0003
    5816:	4d 4d       	mov.b	r13,	r13	
    5818:	12 c3       	clrc			
    581a:	4d 10       	rrc.b	r13		
    581c:	4a 4d       	mov.b	r13,	r10	
    581e:	7a f0 03 00 	and.b	#3,	r10	;#0x0003
    5822:	0f 43       	clr	r15		
    5824:	b0 12 42 45 	call	#0x4542	
    5828:	a2 d2 60 01 	bis	#4,	&0x0160	;r2 As==10
    582c:	b2 f0 fd ff 60 01 	and	#-3,	&0x0160	;#0xfffd
    5832:	1c 42 60 01 	mov	&0x0160,r12	
    5836:	4d 4a       	mov.b	r10,	r13	
    5838:	8d 10       	swpb	r13		
    583a:	3d f0 00 03 	and	#768,	r13	;#0x0300
    583e:	3c f0 ff fc 	and	#-769,	r12	;#0xfcff
    5842:	0d dc       	bis	r12,	r13	
    5844:	82 4d 60 01 	mov	r13,	&0x0160	
    5848:	1f 42 60 01 	mov	&0x0160,r15	
    584c:	0e 4b       	mov	r11,	r14	
    584e:	7d 40 06 00 	mov.b	#6,	r13	;#0x0006
    5852:	0e 5e       	rla	r14		
    5854:	7d 53       	add.b	#-1,	r13	;r3 As==11
    5856:	fd 23       	jnz	$-4      	;abs 0x5852
    5858:	3e f0 ff 00 	and	#255,	r14	;#0x00ff
    585c:	3f f0 3f ff 	and	#-193,	r15	;#0xff3f
    5860:	0e df       	bis	r15,	r14	
    5862:	82 4e 60 01 	mov	r14,	&0x0160	
    5866:	82 43 62 01 	mov	#0,	&0x0162	;r3 As==00
    586a:	0e 45       	mov	r5,	r14	
    586c:	3e 53       	add	#-1,	r14	;r3 As==11
    586e:	82 4e 72 01 	mov	r14,	&0x0172	
    5872:	12 c3       	clrc			
    5874:	0e 10       	rrc	r14		
    5876:	82 4e 74 01 	mov	r14,	&0x0174	
    587a:	02 3c       	jmp	$+6      	;abs 0x5880
    587c:	7b 42       	mov.b	#8,	r11	;r2 As==11
    587e:	01 3c       	jmp	$+4      	;abs 0x5882
    5880:	4b 43       	clr.b	r11		
    5882:	6f 41       	mov.b	@r1,	r15	
    5884:	b0 12 58 4c 	call	#0x4c58	
    5888:	4f 4b       	mov.b	r11,	r15	
    588a:	21 52       	add	#4,	r1	;r2 As==10
    588c:	34 41       	pop	r4		
    588e:	35 41       	pop	r5		
    5890:	36 41       	pop	r6		
    5892:	37 41       	pop	r7		
    5894:	38 41       	pop	r8		
    5896:	39 41       	pop	r9		
    5898:	3a 41       	pop	r10		
    589a:	3b 41       	pop	r11		
    589c:	30 41       	ret			

0000589e <Msp430Adc12ImplP__SingleChannel__getData>:
    589e:	0b 12       	push	r11		
    58a0:	0a 12       	push	r10		
    58a2:	4a 4f       	mov.b	r15,	r10	
    58a4:	b0 12 46 4c 	call	#0x4c46	
    58a8:	4b 4f       	mov.b	r15,	r11	
    58aa:	e2 93 4c 11 	cmp.b	#2,	&0x114c	;r3 As==10
    58ae:	03 20       	jnz	$+8      	;abs 0x58b6
    58b0:	5e 42 12 11 	mov.b	&0x1112,r14	
    58b4:	01 3c       	jmp	$+4      	;abs 0x58b8
    58b6:	7e 43       	mov.b	#-1,	r14	;r3 As==11
    58b8:	4e 9a       	cmp.b	r10,	r14	
    58ba:	8b 20       	jnz	$+280    	;abs 0x59d2
    58bc:	5d 42 fe 11 	mov.b	&0x11fe,r13	
    58c0:	4f 4d       	mov.b	r13,	r15	
    58c2:	3f b2       	bit	#8,	r15	;r2 As==11
    58c4:	09 24       	jz	$+20     	;abs 0x58d8
    58c6:	82 93 f6 11 	tst	&0x11f6	
    58ca:	06 20       	jnz	$+14     	;abs 0x58d8
    58cc:	4f 4b       	mov.b	r11,	r15	
    58ce:	b0 12 58 4c 	call	#0x4c58	
    58d2:	7f 40 06 00 	mov.b	#6,	r15	;#0x0006
    58d6:	81 3c       	jmp	$+260    	;abs 0x59da
    58d8:	3f f0 20 00 	and	#32,	r15	;#0x0020
    58dc:	06 24       	jz	$+14     	;abs 0x58ea
    58de:	4f 4b       	mov.b	r11,	r15	
    58e0:	b0 12 58 4c 	call	#0x4c58	
    58e4:	7f 40 05 00 	mov.b	#5,	r15	;#0x0005
    58e8:	78 3c       	jmp	$+242    	;abs 0x59da
    58ea:	7d d0 20 00 	bis.b	#32,	r13	;#0x0020
    58ee:	c2 4d fe 11 	mov.b	r13,	&0x11fe	
    58f2:	c2 4e 80 11 	mov.b	r14,	&0x1180	
    58f6:	4f 43       	clr.b	r15		
    58f8:	b0 12 5e 46 	call	#0x465e	
    58fc:	7f f0 0f 00 	and.b	#15,	r15	;#0x000f
    5900:	7f 92       	cmp.b	#8,	r15	;r2 As==11
    5902:	4d 2c       	jc	$+156    	;abs 0x599e
    5904:	0e 4f       	mov	r15,	r14	
    5906:	3e f0 0f 00 	and	#15,	r14	;#0x000f
    590a:	0e 5e       	rla	r14		
    590c:	5f 42 37 00 	mov.b	&0x0037,r15	
    5910:	10 4e 18 9f 	br	-24808(r14)	;0x9f18(r14)
    5914:	5f d3       	bis.b	#1,	r15	;r3 As==01
    5916:	c2 4f 37 00 	mov.b	r15,	&0x0037	
    591a:	5f 42 36 00 	mov.b	&0x0036,r15	
    591e:	7f f0 fe ff 	and.b	#-2,	r15	;#0xfffe
    5922:	3b 3c       	jmp	$+120    	;abs 0x599a
    5924:	6f d3       	bis.b	#2,	r15	;r3 As==10
    5926:	c2 4f 37 00 	mov.b	r15,	&0x0037	
    592a:	5f 42 36 00 	mov.b	&0x0036,r15	
    592e:	7f f0 fd ff 	and.b	#-3,	r15	;#0xfffd
    5932:	33 3c       	jmp	$+104    	;abs 0x599a
    5934:	6f d2       	bis.b	#4,	r15	;r2 As==10
    5936:	c2 4f 37 00 	mov.b	r15,	&0x0037	
    593a:	5f 42 36 00 	mov.b	&0x0036,r15	
    593e:	7f f0 fb ff 	and.b	#-5,	r15	;#0xfffb
    5942:	2b 3c       	jmp	$+88     	;abs 0x599a
    5944:	7f d2       	bis.b	#8,	r15	;r2 As==11
    5946:	c2 4f 37 00 	mov.b	r15,	&0x0037	
    594a:	5f 42 36 00 	mov.b	&0x0036,r15	
    594e:	7f f0 f7 ff 	and.b	#-9,	r15	;#0xfff7
    5952:	23 3c       	jmp	$+72     	;abs 0x599a
    5954:	7f d0 10 00 	bis.b	#16,	r15	;#0x0010
    5958:	c2 4f 37 00 	mov.b	r15,	&0x0037	
    595c:	5f 42 36 00 	mov.b	&0x0036,r15	
    5960:	7f f0 ef ff 	and.b	#-17,	r15	;#0xffef
    5964:	1a 3c       	jmp	$+54     	;abs 0x599a
    5966:	7f d0 20 00 	bis.b	#32,	r15	;#0x0020
    596a:	c2 4f 37 00 	mov.b	r15,	&0x0037	
    596e:	5f 42 36 00 	mov.b	&0x0036,r15	
    5972:	7f f0 df ff 	and.b	#-33,	r15	;#0xffdf
    5976:	11 3c       	jmp	$+36     	;abs 0x599a
    5978:	7f d0 40 00 	bis.b	#64,	r15	;#0x0040
    597c:	c2 4f 37 00 	mov.b	r15,	&0x0037	
    5980:	5f 42 36 00 	mov.b	&0x0036,r15	
    5984:	7f f0 bf ff 	and.b	#-65,	r15	;#0xffbf
    5988:	08 3c       	jmp	$+18     	;abs 0x599a
    598a:	7f d0 80 ff 	bis.b	#-128,	r15	;#0xff80
    598e:	c2 4f 37 00 	mov.b	r15,	&0x0037	
    5992:	5f 42 36 00 	mov.b	&0x0036,r15	
    5996:	7f f0 7f 00 	and.b	#127,	r15	;#0x007f
    599a:	c2 4f 36 00 	mov.b	r15,	&0x0036	
    599e:	b2 d0 10 00 a0 01 	bis	#16,	&0x01a0	;#0x0010
    59a4:	b2 d0 03 00 a0 01 	bis	#3,	&0x01a0	;#0x0003
    59aa:	5f 42 fe 11 	mov.b	&0x11fe,r15	
    59ae:	3f f0 40 00 	and	#64,	r15	;#0x0040
    59b2:	0a 24       	jz	$+22     	;abs 0x59c8
    59b4:	82 43 64 01 	mov	#0,	&0x0164	;r3 As==00
    59b8:	a2 42 64 01 	mov	#4,	&0x0164	;r2 As==10
    59bc:	b2 40 e0 00 64 01 	mov	#224,	&0x0164	;#0x00e0
    59c2:	1f 43       	mov	#1,	r15	;r3 As==01
    59c4:	b0 12 42 45 	call	#0x4542	
    59c8:	4f 4b       	mov.b	r11,	r15	
    59ca:	b0 12 58 4c 	call	#0x4c58	
    59ce:	4f 43       	clr.b	r15		
    59d0:	04 3c       	jmp	$+10     	;abs 0x59da
    59d2:	4f 4b       	mov.b	r11,	r15	
    59d4:	b0 12 58 4c 	call	#0x4c58	
    59d8:	5f 43       	mov.b	#1,	r15	;r3 As==01
    59da:	3a 41       	pop	r10		
    59dc:	3b 41       	pop	r11		
    59de:	30 41       	ret			

000059e0 <AdcStreamP__SingleChannel__getData>:
    59e0:	4f 93       	tst.b	r15		
    59e2:	03 24       	jz	$+8      	;abs 0x59ea
    59e4:	5f 93       	cmp.b	#1,	r15	;r3 As==01
    59e6:	08 20       	jnz	$+18     	;abs 0x59f8
    59e8:	02 3c       	jmp	$+6      	;abs 0x59ee
    59ea:	5f 43       	mov.b	#1,	r15	;r3 As==01
    59ec:	02 3c       	jmp	$+6      	;abs 0x59f2
    59ee:	7f 40 03 00 	mov.b	#3,	r15	;#0x0003
    59f2:	b0 12 9e 58 	call	#0x589e	
    59f6:	30 41       	ret			
    59f8:	5f 43       	mov.b	#1,	r15	;r3 As==01
    59fa:	30 41       	ret			

000059fc <AdcStreamP__nextMultiple.part.213>:
    59fc:	0b 12       	push	r11		
    59fe:	0a 12       	push	r10		
    5a00:	09 12       	push	r9		
    5a02:	21 82       	sub	#4,	r1	;r2 As==10
    5a04:	4a 4f       	mov.b	r15,	r10	
    5a06:	6f 93       	cmp.b	#2,	r15	;r3 As==10
    5a08:	05 2c       	jc	$+12     	;abs 0x5a14
    5a0a:	4e 4f       	mov.b	r15,	r14	
    5a0c:	0e 5e       	rla	r14		
    5a0e:	1f 4e 88 a0 	mov	-24440(r14),r15	;0xa088(r14)
    5a12:	02 3c       	jmp	$+6      	;abs 0x5a18
    5a14:	3f 40 70 a0 	mov	#-24464,r15	;#0xa070
    5a18:	a1 4f 00 00 	mov	@r15,	0(r1)	;0x0000(r1)
    5a1c:	91 4f 02 00 02 00 	mov	2(r15),	2(r1)	;0x0002(r15), 0x0002(r1)
    5a22:	5f 41 02 00 	mov.b	2(r1),	r15	;0x0002(r1)
    5a26:	7f f0 e1 ff 	and.b	#-31,	r15	;#0xffe1
    5a2a:	6f d2       	bis.b	#4,	r15	;r2 As==10
    5a2c:	c1 4f 02 00 	mov.b	r15,	2(r1)	;0x0002(r1)
    5a30:	1f 42 68 12 	mov	&0x1268,r15	
    5a34:	1c 42 6e 12 	mov	&0x126e,r12	
    5a38:	1d 42 86 11 	mov	&0x1186,r13	
    5a3c:	4a 93       	tst.b	r10		
    5a3e:	03 24       	jz	$+8      	;abs 0x5a46
    5a40:	5a 93       	cmp.b	#1,	r10	;r3 As==01
    5a42:	24 20       	jnz	$+74     	;abs 0x5a8c
    5a44:	0d 3c       	jmp	$+28     	;abs 0x5a60
    5a46:	0d 93       	tst	r13		
    5a48:	21 24       	jz	$+68     	;abs 0x5a8c
    5a4a:	0c 93       	tst	r12		
    5a4c:	1f 24       	jz	$+64     	;abs 0x5a8c
    5a4e:	1f 93       	cmp	#1,	r15	;r3 As==01
    5a50:	1d 24       	jz	$+60     	;abs 0x5a8c
    5a52:	2f 93       	cmp	#2,	r15	;r3 As==10
    5a54:	1b 24       	jz	$+56     	;abs 0x5a8c
    5a56:	0f 12       	push	r15		
    5a58:	0e 41       	mov	r1,	r14	
    5a5a:	2e 53       	incd	r14		
    5a5c:	5f 43       	mov.b	#1,	r15	;r3 As==01
    5a5e:	0d 3c       	jmp	$+28     	;abs 0x5a7a
    5a60:	0d 93       	tst	r13		
    5a62:	14 24       	jz	$+42     	;abs 0x5a8c
    5a64:	0c 93       	tst	r12		
    5a66:	12 24       	jz	$+38     	;abs 0x5a8c
    5a68:	1f 93       	cmp	#1,	r15	;r3 As==01
    5a6a:	10 24       	jz	$+34     	;abs 0x5a8c
    5a6c:	2f 93       	cmp	#2,	r15	;r3 As==10
    5a6e:	0e 24       	jz	$+30     	;abs 0x5a8c
    5a70:	0f 12       	push	r15		
    5a72:	0e 41       	mov	r1,	r14	
    5a74:	2e 53       	incd	r14		
    5a76:	7f 40 03 00 	mov.b	#3,	r15	;#0x0003
    5a7a:	b0 12 8e 56 	call	#0x568e	
    5a7e:	21 53       	incd	r1		
    5a80:	4f 93       	tst.b	r15		
    5a82:	04 20       	jnz	$+10     	;abs 0x5a8c
    5a84:	4f 4a       	mov.b	r10,	r15	
    5a86:	b0 12 e0 59 	call	#0x59e0	
    5a8a:	1f 3c       	jmp	$+64     	;abs 0x5aca
    5a8c:	19 42 6e 12 	mov	&0x126e,r9	
    5a90:	1b 42 86 11 	mov	&0x1186,r11	
    5a94:	29 92       	cmp	#4,	r9	;r2 As==10
    5a96:	15 28       	jnc	$+44     	;abs 0x5ac2
    5a98:	b0 12 46 4c 	call	#0x4c46	
    5a9c:	4e 4a       	mov.b	r10,	r14	
    5a9e:	0e 5e       	rla	r14		
    5aa0:	3e 50 2a 13 	add	#4906,	r14	;#0x132a
    5aa4:	8e 93 00 00 	tst	0(r14)		;0x0000(r14)
    5aa8:	0a 24       	jz	$+22     	;abs 0x5abe
    5aaa:	8b 49 00 00 	mov	r9,	0(r11)	;0x0000(r11)
    5aae:	8b 43 02 00 	mov	#0,	2(r11)	;r3 As==00, 0x0002(r11)
    5ab2:	2d 4e       	mov	@r14,	r13	
    5ab4:	8d 4b 00 00 	mov	r11,	0(r13)	;0x0000(r13)
    5ab8:	2b 53       	incd	r11		
    5aba:	8e 4b 00 00 	mov	r11,	0(r14)	;0x0000(r14)
    5abe:	b0 12 58 4c 	call	#0x4c58	
    5ac2:	7f 40 0d 00 	mov.b	#13,	r15	;#0x000d
    5ac6:	b0 12 36 4d 	call	#0x4d36	
    5aca:	21 52       	add	#4,	r1	;r2 As==10
    5acc:	39 41       	pop	r9		
    5ace:	3a 41       	pop	r10		
    5ad0:	3b 41       	pop	r11		
    5ad2:	30 41       	ret			

00005ad4 <AdcStreamP__SingleChannel__multipleDataReady.isra.214>:
    5ad4:	0b 12       	push	r11		
    5ad6:	0a 12       	push	r10		
    5ad8:	09 12       	push	r9		
    5ada:	49 4f       	mov.b	r15,	r9	
    5adc:	82 93 de 11 	tst	&0x11de	
    5ae0:	0a 24       	jz	$+22     	;abs 0x5af6
    5ae2:	5f 42 10 11 	mov.b	&0x1110,r15	
    5ae6:	0f 5f       	rla	r15		
    5ae8:	8f 43 2a 13 	mov	#0,	4906(r15);r3 As==00, 0x132a(r15)
    5aec:	7f 40 0d 00 	mov.b	#13,	r15	;#0x000d
    5af0:	b0 12 36 4d 	call	#0x4d36	
    5af4:	25 3c       	jmp	$+76     	;abs 0x5b40
    5af6:	1c 42 d2 12 	mov	&0x12d2,r12	
    5afa:	82 4c de 11 	mov	r12,	&0x11de	
    5afe:	1e 42 86 11 	mov	&0x1186,r14	
    5b02:	0d 4e       	mov	r14,	r13	
    5b04:	8d 10       	swpb	r13		
    5b06:	8d 11       	sxt	r13		
    5b08:	8d 10       	swpb	r13		
    5b0a:	8d 11       	sxt	r13		
    5b0c:	0f 4d       	mov	r13,	r15	
    5b0e:	0a 4c       	mov	r12,	r10	
    5b10:	0d 4c       	mov	r12,	r13	
    5b12:	8d 10       	swpb	r13		
    5b14:	8d 11       	sxt	r13		
    5b16:	8d 10       	swpb	r13		
    5b18:	8d 11       	sxt	r13		
    5b1a:	0b 4d       	mov	r13,	r11	
    5b1c:	0e 8a       	sub	r10,	r14	
    5b1e:	0f 7b       	subc	r11,	r15	
    5b20:	0f 11       	rra	r15		
    5b22:	0e 10       	rrc	r14		
    5b24:	82 4e 38 13 	mov	r14,	&0x1338	
    5b28:	7f 40 0e 00 	mov.b	#14,	r15	;#0x000e
    5b2c:	b0 12 36 4d 	call	#0x4d36	
    5b30:	4f 43       	clr.b	r15		
    5b32:	b0 12 80 55 	call	#0x5580	
    5b36:	4f 93       	tst.b	r15		
    5b38:	03 20       	jnz	$+8      	;abs 0x5b40
    5b3a:	4f 49       	mov.b	r9,	r15	
    5b3c:	b0 12 fc 59 	call	#0x59fc	
    5b40:	0f 43       	clr	r15		
    5b42:	39 41       	pop	r9		
    5b44:	3a 41       	pop	r10		
    5b46:	3b 41       	pop	r11		
    5b48:	30 41       	ret			

00005b4a <Msp430Adc12ImplP__SingleChannel__multipleDataReady.isra.216>:
    5b4a:	5f 93       	cmp.b	#1,	r15	;r3 As==01
    5b4c:	04 24       	jz	$+10     	;abs 0x5b56
    5b4e:	7f 90 03 00 	cmp.b	#3,	r15	;#0x0003
    5b52:	07 20       	jnz	$+16     	;abs 0x5b62
    5b54:	02 3c       	jmp	$+6      	;abs 0x5b5a
    5b56:	4f 43       	clr.b	r15		
    5b58:	01 3c       	jmp	$+4      	;abs 0x5b5c
    5b5a:	5f 43       	mov.b	#1,	r15	;r3 As==01
    5b5c:	b0 12 d4 5a 	call	#0x5ad4	
    5b60:	30 41       	ret			
    5b62:	0f 43       	clr	r15		
    5b64:	30 41       	ret			

00005b66 <CC2420SpiP__Reg__write>:
    5b66:	0b 12       	push	r11		
    5b68:	0a 12       	push	r10		
    5b6a:	09 12       	push	r9		
    5b6c:	49 4f       	mov.b	r15,	r9	
    5b6e:	0a 4e       	mov	r14,	r10	
    5b70:	b0 12 46 4c 	call	#0x4c46	
    5b74:	4b 4f       	mov.b	r15,	r11	
    5b76:	b0 12 dc 4c 	call	#0x4cdc	
    5b7a:	4f 93       	tst.b	r15		
    5b7c:	05 24       	jz	$+12     	;abs 0x5b88
    5b7e:	4f 4b       	mov.b	r11,	r15	
    5b80:	b0 12 58 4c 	call	#0x4c58	
    5b84:	4f 43       	clr.b	r15		
    5b86:	0d 3c       	jmp	$+28     	;abs 0x5ba2
    5b88:	4f 4b       	mov.b	r11,	r15	
    5b8a:	b0 12 58 4c 	call	#0x4c58	
    5b8e:	4f 49       	mov.b	r9,	r15	
    5b90:	b0 12 b8 45 	call	#0x45b8	
    5b94:	0f 4a       	mov	r10,	r15	
    5b96:	8f 10       	swpb	r15		
    5b98:	b0 12 b8 45 	call	#0x45b8	
    5b9c:	4f 4a       	mov.b	r10,	r15	
    5b9e:	b0 12 b8 45 	call	#0x45b8	
    5ba2:	39 41       	pop	r9		
    5ba4:	3a 41       	pop	r10		
    5ba6:	3b 41       	pop	r11		
    5ba8:	30 41       	ret			

00005baa <CC2420SpiP__Ram__write>:
    5baa:	0b 12       	push	r11		
    5bac:	0a 12       	push	r10		
    5bae:	09 12       	push	r9		
    5bb0:	08 12       	push	r8		
    5bb2:	07 12       	push	r7		
    5bb4:	08 4f       	mov	r15,	r8	
    5bb6:	4a 4e       	mov.b	r14,	r10	
    5bb8:	07 4d       	mov	r13,	r7	
    5bba:	4b 4c       	mov.b	r12,	r11	
    5bbc:	b0 12 46 4c 	call	#0x4c46	
    5bc0:	49 4f       	mov.b	r15,	r9	
    5bc2:	b0 12 dc 4c 	call	#0x4cdc	
    5bc6:	4f 93       	tst.b	r15		
    5bc8:	05 24       	jz	$+12     	;abs 0x5bd4
    5bca:	4f 49       	mov.b	r9,	r15	
    5bcc:	b0 12 58 4c 	call	#0x4c58	
    5bd0:	4f 43       	clr.b	r15		
    5bd2:	21 3c       	jmp	$+68     	;abs 0x5c16
    5bd4:	4f 49       	mov.b	r9,	r15	
    5bd6:	b0 12 58 4c 	call	#0x4c58	
    5bda:	4a 4a       	mov.b	r10,	r10	
    5bdc:	0a 58       	add	r8,	r10	
    5bde:	4f 4a       	mov.b	r10,	r15	
    5be0:	7f d0 80 ff 	bis.b	#-128,	r15	;#0xff80
    5be4:	b0 12 b8 45 	call	#0x45b8	
    5be8:	49 4f       	mov.b	r15,	r9	
    5bea:	0e 4a       	mov	r10,	r14	
    5bec:	12 c3       	clrc			
    5bee:	0e 10       	rrc	r14		
    5bf0:	4f 4e       	mov.b	r14,	r15	
    5bf2:	7f f0 c0 ff 	and.b	#-64,	r15	;#0xffc0
    5bf6:	b0 12 b8 45 	call	#0x45b8	
    5bfa:	4a 4b       	mov.b	r11,	r10	
    5bfc:	09 3c       	jmp	$+20     	;abs 0x5c10
    5bfe:	4e 4b       	mov.b	r11,	r14	
    5c00:	0f 4a       	mov	r10,	r15	
    5c02:	0f 8e       	sub	r14,	r15	
    5c04:	0e 4f       	mov	r15,	r14	
    5c06:	0e 57       	add	r7,	r14	
    5c08:	6f 4e       	mov.b	@r14,	r15	
    5c0a:	b0 12 b8 45 	call	#0x45b8	
    5c0e:	7b 53       	add.b	#-1,	r11	;r3 As==11
    5c10:	4b 93       	tst.b	r11		
    5c12:	f5 23       	jnz	$-20     	;abs 0x5bfe
    5c14:	4f 49       	mov.b	r9,	r15	
    5c16:	37 41       	pop	r7		
    5c18:	38 41       	pop	r8		
    5c1a:	39 41       	pop	r9		
    5c1c:	3a 41       	pop	r10		
    5c1e:	3b 41       	pop	r11		
    5c20:	30 41       	ret			

00005c22 <CC2420ControlP__writeId>:
    5c22:	0b 12       	push	r11		
    5c24:	31 50 f4 ff 	add	#-12,	r1	;#0xfff4
    5c28:	b0 12 46 4c 	call	#0x4c46	
    5c2c:	4b 4f       	mov.b	r15,	r11	
    5c2e:	3d 42       	mov	#8,	r13	;r2 As==11
    5c30:	3e 40 88 12 	mov	#4744,	r14	;#0x1288
    5c34:	0f 41       	mov	r1,	r15	
    5c36:	b0 12 a8 93 	call	#0x93a8	
    5c3a:	1e 42 d0 11 	mov	&0x11d0,r14	
    5c3e:	c1 4e 08 00 	mov.b	r14,	8(r1)	;0x0008(r1)
    5c42:	8e 10       	swpb	r14		
    5c44:	c1 4e 09 00 	mov.b	r14,	9(r1)	;0x0009(r1)
    5c48:	1e 42 ee 11 	mov	&0x11ee,r14	
    5c4c:	c1 4e 0a 00 	mov.b	r14,	10(r1)	;0x000a(r1)
    5c50:	8e 10       	swpb	r14		
    5c52:	c1 4e 0b 00 	mov.b	r14,	11(r1)	;0x000b(r1)
    5c56:	4f 4b       	mov.b	r11,	r15	
    5c58:	b0 12 58 4c 	call	#0x4c58	
    5c5c:	7c 40 0c 00 	mov.b	#12,	r12	;#0x000c
    5c60:	0d 41       	mov	r1,	r13	
    5c62:	4e 43       	clr.b	r14		
    5c64:	3f 40 60 01 	mov	#352,	r15	;#0x0160
    5c68:	b0 12 aa 5b 	call	#0x5baa	
    5c6c:	31 50 0c 00 	add	#12,	r1	;#0x000c
    5c70:	3b 41       	pop	r11		
    5c72:	30 41       	ret			

00005c74 <Msp430InterruptC__0__Interrupt__disable>:
    5c74:	b0 12 46 4c 	call	#0x4c46	
    5c78:	f2 f0 df ff 25 00 	and.b	#-33,	&0x0025	;#0xffdf
    5c7e:	f2 f0 df ff 23 00 	and.b	#-33,	&0x0023	;#0xffdf
    5c84:	b0 12 58 4c 	call	#0x4c58	
    5c88:	4f 43       	clr.b	r15		
    5c8a:	30 41       	ret			

00005c8c <ArbiterP__1__Resource__request>:
    5c8c:	0b 12       	push	r11		
    5c8e:	4b 4f       	mov.b	r15,	r11	
    5c90:	b0 12 46 4c 	call	#0x4c46	
    5c94:	4d 4f       	mov.b	r15,	r13	
    5c96:	c2 93 54 11 	tst.b	&0x1154	
    5c9a:	11 20       	jnz	$+36     	;abs 0x5cbe
    5c9c:	d2 43 54 11 	mov.b	#1,	&0x1154	;r3 As==01
    5ca0:	c2 4b d2 11 	mov.b	r11,	&0x11d2	
    5ca4:	b0 12 58 4c 	call	#0x4c58	
    5ca8:	c2 93 52 11 	tst.b	&0x1152	
    5cac:	05 20       	jnz	$+12     	;abs 0x5cb8
    5cae:	7f 40 07 00 	mov.b	#7,	r15	;#0x0007
    5cb2:	b0 12 36 4d 	call	#0x4d36	
    5cb6:	08 3c       	jmp	$+18     	;abs 0x5cc8
    5cb8:	d2 43 50 11 	mov.b	#1,	&0x1150	;r3 As==01
    5cbc:	05 3c       	jmp	$+12     	;abs 0x5cc8
    5cbe:	c2 9b d2 11 	cmp.b	r11,	&0x11d2	
    5cc2:	04 20       	jnz	$+10     	;abs 0x5ccc
    5cc4:	b0 12 58 4c 	call	#0x4c58	
    5cc8:	4f 43       	clr.b	r15		
    5cca:	1f 3c       	jmp	$+64     	;abs 0x5d0a
    5ccc:	4f 4b       	mov.b	r11,	r15	
    5cce:	1e 43       	mov	#1,	r14	;r3 As==01
    5cd0:	ff 93 36 13 	cmp.b	#-1,	4918(r15);r3 As==11, 0x1336(r15)
    5cd4:	04 20       	jnz	$+10     	;abs 0x5cde
    5cd6:	c2 9b 14 11 	cmp.b	r11,	&0x1114	
    5cda:	01 24       	jz	$+4      	;abs 0x5cde
    5cdc:	0e 43       	clr	r14		
    5cde:	0e 93       	tst	r14		
    5ce0:	0e 20       	jnz	$+30     	;abs 0x5cfe
    5ce2:	f2 93 15 11 	cmp.b	#-1,	&0x1115	;r3 As==11
    5ce6:	03 20       	jnz	$+8      	;abs 0x5cee
    5ce8:	c2 4b 15 11 	mov.b	r11,	&0x1115	
    5cec:	04 3c       	jmp	$+10     	;abs 0x5cf6
    5cee:	5f 42 14 11 	mov.b	&0x1114,r15	
    5cf2:	cf 4b 36 13 	mov.b	r11,	4918(r15);0x1336(r15)
    5cf6:	c2 4b 14 11 	mov.b	r11,	&0x1114	
    5cfa:	4b 43       	clr.b	r11		
    5cfc:	02 3c       	jmp	$+6      	;abs 0x5d02
    5cfe:	7b 40 05 00 	mov.b	#5,	r11	;#0x0005
    5d02:	4f 4d       	mov.b	r13,	r15	
    5d04:	b0 12 58 4c 	call	#0x4c58	
    5d08:	4f 4b       	mov.b	r11,	r15	
    5d0a:	3b 41       	pop	r11		
    5d0c:	30 41       	ret			

00005d0e <SimpleArbiterP__0__Resource__request>:
    5d0e:	0b 12       	push	r11		
    5d10:	0a 12       	push	r10		
    5d12:	4b 4f       	mov.b	r15,	r11	
    5d14:	b0 12 46 4c 	call	#0x4c46	
    5d18:	4a 4f       	mov.b	r15,	r10	
    5d1a:	c2 93 4c 11 	tst.b	&0x114c	
    5d1e:	0d 20       	jnz	$+28     	;abs 0x5d3a
    5d20:	d2 43 4c 11 	mov.b	#1,	&0x114c	;r3 As==01
    5d24:	c2 4b 12 11 	mov.b	r11,	&0x1112	
    5d28:	7f 40 0a 00 	mov.b	#10,	r15	;#0x000a
    5d2c:	b0 12 36 4d 	call	#0x4d36	
    5d30:	4f 4a       	mov.b	r10,	r15	
    5d32:	b0 12 58 4c 	call	#0x4c58	
    5d36:	4f 43       	clr.b	r15		
    5d38:	21 3c       	jmp	$+68     	;abs 0x5d7c
    5d3a:	4e 4b       	mov.b	r11,	r14	
    5d3c:	12 c3       	clrc			
    5d3e:	4e 10       	rrc.b	r14		
    5d40:	12 c3       	clrc			
    5d42:	4e 10       	rrc.b	r14		
    5d44:	12 c3       	clrc			
    5d46:	4e 10       	rrc.b	r14		
    5d48:	4e 4e       	mov.b	r14,	r14	
    5d4a:	5f 4e 0a 12 	mov.b	4618(r14),r15	;0x120a(r14)
    5d4e:	1d 43       	mov	#1,	r13	;r3 As==01
    5d50:	4c 4b       	mov.b	r11,	r12	
    5d52:	7c f0 07 00 	and.b	#7,	r12	;#0x0007
    5d56:	4c 93       	tst.b	r12		
    5d58:	03 24       	jz	$+8      	;abs 0x5d60
    5d5a:	0d 5d       	rla	r13		
    5d5c:	7c 53       	add.b	#-1,	r12	;r3 As==11
    5d5e:	fb 3f       	jmp	$-8      	;abs 0x5d56
    5d60:	4d 4d       	mov.b	r13,	r13	
    5d62:	4d bf       	bit.b	r15,	r13	
    5d64:	05 20       	jnz	$+12     	;abs 0x5d70
    5d66:	4d df       	bis.b	r15,	r13	
    5d68:	ce 4d 0a 12 	mov.b	r13,	4618(r14);0x120a(r14)
    5d6c:	4b 43       	clr.b	r11		
    5d6e:	02 3c       	jmp	$+6      	;abs 0x5d74
    5d70:	7b 40 05 00 	mov.b	#5,	r11	;#0x0005
    5d74:	4f 4a       	mov.b	r10,	r15	
    5d76:	b0 12 58 4c 	call	#0x4c58	
    5d7a:	4f 4b       	mov.b	r11,	r15	
    5d7c:	3a 41       	pop	r10		
    5d7e:	3b 41       	pop	r11		
    5d80:	30 41       	ret			

00005d82 <Msp430RefVoltArbiterImplP__AdcResource__request>:
    5d82:	7f 90 05 00 	cmp.b	#5,	r15	;#0x0005
    5d86:	11 2c       	jc	$+36     	;abs 0x5daa
    5d88:	4f 4f       	mov.b	r15,	r15	
    5d8a:	0f 5f       	rla	r15		
    5d8c:	10 4f 28 9f 	br	-24792(r15)	;0x9f28(r15)
    5d90:	4f 43       	clr.b	r15		
    5d92:	08 3c       	jmp	$+18     	;abs 0x5da4
    5d94:	5f 43       	mov.b	#1,	r15	;r3 As==01
    5d96:	06 3c       	jmp	$+14     	;abs 0x5da4
    5d98:	6f 43       	mov.b	#2,	r15	;r3 As==10
    5d9a:	04 3c       	jmp	$+10     	;abs 0x5da4
    5d9c:	7f 40 03 00 	mov.b	#3,	r15	;#0x0003
    5da0:	01 3c       	jmp	$+4      	;abs 0x5da4
    5da2:	6f 42       	mov.b	#4,	r15	;r2 As==10
    5da4:	b0 12 0e 5d 	call	#0x5d0e	
    5da8:	30 41       	ret			
    5daa:	5f 43       	mov.b	#1,	r15	;r3 As==01
    5dac:	30 41       	ret			

00005dae <AdcP__Read__read>:
    5dae:	4f 93       	tst.b	r15		
    5db0:	03 24       	jz	$+8      	;abs 0x5db8
    5db2:	5f 93       	cmp.b	#1,	r15	;r3 As==01
    5db4:	04 20       	jnz	$+10     	;abs 0x5dbe
    5db6:	6f 43       	mov.b	#2,	r15	;r3 As==10
    5db8:	b0 12 82 5d 	call	#0x5d82	
    5dbc:	30 41       	ret			
    5dbe:	5f 43       	mov.b	#1,	r15	;r3 As==01
    5dc0:	30 41       	ret			

00005dc2 <CC2420CsmaP__SplitControlState__forceState>:
    5dc2:	0b 12       	push	r11		
    5dc4:	4b 4f       	mov.b	r15,	r11	
    5dc6:	b0 12 46 4c 	call	#0x4c46	
    5dca:	c2 4b 75 12 	mov.b	r11,	&0x1275	
    5dce:	b0 12 58 4c 	call	#0x4c58	
    5dd2:	3b 41       	pop	r11		
    5dd4:	30 41       	ret			

00005dd6 <CC2420TransmitP__loadTXFIFO>:
    5dd6:	0b 12       	push	r11		
    5dd8:	0a 12       	push	r10		
    5dda:	09 12       	push	r9		
    5ddc:	1b 42 d6 11 	mov	&0x11d6,r11	
    5de0:	5a 4b 2a 00 	mov.b	42(r11),r10	;0x002a(r11)
    5de4:	4a 93       	tst.b	r10		
    5de6:	02 20       	jnz	$+6      	;abs 0x5dec
    5de8:	7a 40 1f 00 	mov.b	#31,	r10	;#0x001f
    5dec:	b0 12 26 4d 	call	#0x4d26	
    5df0:	c2 9a b3 11 	cmp.b	r10,	&0x11b3	
    5df4:	07 24       	jz	$+16     	;abs 0x5e04
    5df6:	4e 4a       	mov.b	r10,	r14	
    5df8:	3e d0 e0 80 	bis	#-32544,r14	;#0x80e0
    5dfc:	7f 40 15 00 	mov.b	#21,	r15	;#0x0015
    5e00:	b0 12 66 5b 	call	#0x5b66	
    5e04:	c2 4a b3 11 	mov.b	r10,	&0x11b3	
    5e08:	69 4b       	mov.b	@r11,	r9	
    5e0a:	b0 12 46 4c 	call	#0x4c46	
    5e0e:	4a 4f       	mov.b	r15,	r10	
    5e10:	b0 12 dc 4c 	call	#0x4cdc	
    5e14:	4f 93       	tst.b	r15		
    5e16:	04 24       	jz	$+10     	;abs 0x5e20
    5e18:	4f 4a       	mov.b	r10,	r15	
    5e1a:	b0 12 58 4c 	call	#0x4c58	
    5e1e:	20 3c       	jmp	$+66     	;abs 0x5e60
    5e20:	4f 4a       	mov.b	r10,	r15	
    5e22:	b0 12 58 4c 	call	#0x4c58	
    5e26:	b2 40 3e 00 f2 11 	mov	#62,	&0x11f2	;#0x003e
    5e2c:	7f 40 3e 00 	mov.b	#62,	r15	;#0x003e
    5e30:	b0 12 b8 45 	call	#0x45b8	
    5e34:	4f 49       	mov.b	r9,	r15	
    5e36:	7f 53       	add.b	#-1,	r15	;r3 As==11
    5e38:	4f 4f       	mov.b	r15,	r15	
    5e3a:	c2 43 f0 11 	mov.b	#0,	&0x11f0	;r3 As==00
    5e3e:	82 4b e2 11 	mov	r11,	&0x11e2	
    5e42:	82 43 6c 12 	mov	#0,	&0x126c	;r3 As==00
    5e46:	82 4f 32 13 	mov	r15,	&0x1332	
    5e4a:	82 43 2e 13 	mov	#0,	&0x132e	;r3 As==00
    5e4e:	0f 93       	tst	r15		
    5e50:	03 24       	jz	$+8      	;abs 0x5e58
    5e52:	b0 12 5a 4e 	call	#0x4e5a	
    5e56:	04 3c       	jmp	$+10     	;abs 0x5e60
    5e58:	7f 40 15 00 	mov.b	#21,	r15	;#0x0015
    5e5c:	b0 12 36 4d 	call	#0x4d36	
    5e60:	39 41       	pop	r9		
    5e62:	3a 41       	pop	r10		
    5e64:	3b 41       	pop	r11		
    5e66:	30 41       	ret			

00005e68 <ArbiterP__1__Resource__release>:
    5e68:	0b 12       	push	r11		
    5e6a:	0a 12       	push	r10		
    5e6c:	4a 4f       	mov.b	r15,	r10	
    5e6e:	b0 12 46 4c 	call	#0x4c46	
    5e72:	4b 4f       	mov.b	r15,	r11	
    5e74:	f2 90 03 00 54 11 	cmp.b	#3,	&0x1154	;#0x0003
    5e7a:	2a 20       	jnz	$+86     	;abs 0x5ed0
    5e7c:	c2 9a 13 11 	cmp.b	r10,	&0x1113	
    5e80:	27 20       	jnz	$+80     	;abs 0x5ed0
    5e82:	5d 42 15 11 	mov.b	&0x1115,r13	
    5e86:	7d 93       	cmp.b	#-1,	r13	;r3 As==11
    5e88:	15 24       	jz	$+44     	;abs 0x5eb4
    5e8a:	4e 4d       	mov.b	r13,	r14	
    5e8c:	3e 50 36 13 	add	#4918,	r14	;#0x1336
    5e90:	6f 4e       	mov.b	@r14,	r15	
    5e92:	c2 4f 15 11 	mov.b	r15,	&0x1115	
    5e96:	7f 93       	cmp.b	#-1,	r15	;r3 As==11
    5e98:	02 20       	jnz	$+6      	;abs 0x5e9e
    5e9a:	f2 43 14 11 	mov.b	#-1,	&0x1114	;r3 As==11
    5e9e:	fe 43 00 00 	mov.b	#-1,	0(r14)	;r3 As==11, 0x0000(r14)
    5ea2:	c2 4d d2 11 	mov.b	r13,	&0x11d2	
    5ea6:	f2 43 13 11 	mov.b	#-1,	&0x1113	;r3 As==11
    5eaa:	d2 43 54 11 	mov.b	#1,	&0x1154	;r3 As==01
    5eae:	7f 40 06 00 	mov.b	#6,	r15	;#0x0006
    5eb2:	07 3c       	jmp	$+16     	;abs 0x5ec2
    5eb4:	e2 43 13 11 	mov.b	#2,	&0x1113	;r3 As==10
    5eb8:	c2 43 54 11 	mov.b	#0,	&0x1154	;r3 As==00
    5ebc:	d2 43 52 11 	mov.b	#1,	&0x1152	;r3 As==01
    5ec0:	7f 42       	mov.b	#8,	r15	;r2 As==11
    5ec2:	b0 12 36 4d 	call	#0x4d36	
    5ec6:	4f 4b       	mov.b	r11,	r15	
    5ec8:	b0 12 58 4c 	call	#0x4c58	
    5ecc:	4f 43       	clr.b	r15		
    5ece:	04 3c       	jmp	$+10     	;abs 0x5ed8
    5ed0:	4f 4b       	mov.b	r11,	r15	
    5ed2:	b0 12 58 4c 	call	#0x4c58	
    5ed6:	5f 43       	mov.b	#1,	r15	;r3 As==01
    5ed8:	3a 41       	pop	r10		
    5eda:	3b 41       	pop	r11		
    5edc:	30 41       	ret			

00005ede <SensirionSht11LogicP__0__SensirionSht11__measureTemperatureDone>:
    5ede:	0b 12       	push	r11		
    5ee0:	0a 12       	push	r10		
    5ee2:	4a 4e       	mov.b	r14,	r10	
    5ee4:	0b 4d       	mov	r13,	r11	
    5ee6:	4f 93       	tst.b	r15		
    5ee8:	0c 20       	jnz	$+26     	;abs 0x5f02
    5eea:	b0 12 68 5e 	call	#0x5e68	
    5eee:	4a 93       	tst.b	r10		
    5ef0:	04 20       	jnz	$+10     	;abs 0x5efa
    5ef2:	0f 4b       	mov	r11,	r15	
    5ef4:	b0 12 f4 4a 	call	#0x4af4	
    5ef8:	04 3c       	jmp	$+10     	;abs 0x5f02
    5efa:	3f 40 32 9f 	mov	#-24782,r15	;#0x9f32
    5efe:	b0 12 60 9d 	call	#0x9d60	
    5f02:	3a 41       	pop	r10		
    5f04:	3b 41       	pop	r11		
    5f06:	30 41       	ret			

00005f08 <SensirionSht11LogicP__0__SensirionSht11__measureHumidityDone>:
    5f08:	0b 12       	push	r11		
    5f0a:	0a 12       	push	r10		
    5f0c:	4a 4e       	mov.b	r14,	r10	
    5f0e:	0b 4d       	mov	r13,	r11	
    5f10:	5f 93       	cmp.b	#1,	r15	;r3 As==01
    5f12:	0c 20       	jnz	$+26     	;abs 0x5f2c
    5f14:	b0 12 68 5e 	call	#0x5e68	
    5f18:	4a 93       	tst.b	r10		
    5f1a:	04 20       	jnz	$+10     	;abs 0x5f24
    5f1c:	0f 4b       	mov	r11,	r15	
    5f1e:	b0 12 c6 4b 	call	#0x4bc6	
    5f22:	04 3c       	jmp	$+10     	;abs 0x5f2c
    5f24:	3f 40 4f 9f 	mov	#-24753,r15	;#0x9f4f
    5f28:	b0 12 60 9d 	call	#0x9d60	
    5f2c:	3a 41       	pop	r10		
    5f2e:	3b 41       	pop	r11		
    5f30:	30 41       	ret			

00005f32 <Msp430Adc12ImplP__SingleChannel__configureSingle>:
    5f32:	0b 12       	push	r11		
    5f34:	0a 12       	push	r10		
    5f36:	09 12       	push	r9		
    5f38:	08 12       	push	r8		
    5f3a:	07 12       	push	r7		
    5f3c:	4b 4f       	mov.b	r15,	r11	
    5f3e:	0a 4e       	mov	r14,	r10	
    5f40:	0e 93       	tst	r14		
    5f42:	6c 24       	jz	$+218    	;abs 0x601c
    5f44:	b0 12 46 4c 	call	#0x4c46	
    5f48:	48 4f       	mov.b	r15,	r8	
    5f4a:	5e 42 fe 11 	mov.b	&0x11fe,r14	
    5f4e:	3e f0 20 00 	and	#32,	r14	;#0x0020
    5f52:	05 24       	jz	$+12     	;abs 0x5f5e
    5f54:	b0 12 58 4c 	call	#0x4c58	
    5f58:	7b 40 05 00 	mov.b	#5,	r11	;#0x0005
    5f5c:	61 3c       	jmp	$+196    	;abs 0x6020
    5f5e:	e2 93 4c 11 	cmp.b	#2,	&0x114c	;r3 As==10
    5f62:	03 20       	jnz	$+8      	;abs 0x5f6a
    5f64:	5e 42 12 11 	mov.b	&0x1112,r14	
    5f68:	01 3c       	jmp	$+4      	;abs 0x5f6c
    5f6a:	7e 43       	mov.b	#-1,	r14	;r3 As==11
    5f6c:	4e 9b       	cmp.b	r11,	r14	
    5f6e:	51 20       	jnz	$+164    	;abs 0x6012
    5f70:	5c 4a 01 00 	mov.b	1(r10),	r12	;0x0001(r10)
    5f74:	3c f0 03 00 	and	#3,	r12	;#0x0003
    5f78:	0c 5c       	rla	r12		
    5f7a:	0c 5c       	rla	r12		
    5f7c:	0c 5c       	rla	r12		
    5f7e:	5d 4a 01 00 	mov.b	1(r10),	r13	;0x0001(r10)
    5f82:	12 c3       	clrc			
    5f84:	4d 10       	rrc.b	r13		
    5f86:	12 c3       	clrc			
    5f88:	4d 10       	rrc.b	r13		
    5f8a:	3d f0 07 00 	and	#7,	r13	;#0x0007
    5f8e:	0d 5d       	rla	r13		
    5f90:	0d 5d       	rla	r13		
    5f92:	0d 5d       	rla	r13		
    5f94:	0d 5d       	rla	r13		
    5f96:	0d 5d       	rla	r13		
    5f98:	09 4c       	mov	r12,	r9	
    5f9a:	09 dd       	bis	r13,	r9	
    5f9c:	39 d0 00 02 	bis	#512,	r9	;#0x0200
    5fa0:	67 4a       	mov.b	@r10,	r7	
    5fa2:	77 d0 80 ff 	bis.b	#-128,	r7	;#0xff80
    5fa6:	b0 12 ea 45 	call	#0x45ea	
    5faa:	0b 4f       	mov	r15,	r11	
    5fac:	3b d0 80 00 	bis	#128,	r11	;#0x0080
    5fb0:	5d 4a 01 00 	mov.b	1(r10),	r13	;0x0001(r10)
    5fb4:	12 c3       	clrc			
    5fb6:	4d 10       	rrc.b	r13		
    5fb8:	12 c3       	clrc			
    5fba:	4d 10       	rrc.b	r13		
    5fbc:	12 c3       	clrc			
    5fbe:	4d 10       	rrc.b	r13		
    5fc0:	12 c3       	clrc			
    5fc2:	4d 10       	rrc.b	r13		
    5fc4:	12 c3       	clrc			
    5fc6:	4d 10       	rrc.b	r13		
    5fc8:	5c 4a 02 00 	mov.b	2(r10),	r12	;0x0002(r10)
    5fcc:	1c f3       	and	#1,	r12	;r3 As==01
    5fce:	0c 5c       	rla	r12		
    5fd0:	0c 5c       	rla	r12		
    5fd2:	0c 5c       	rla	r12		
    5fd4:	4c dd       	bis.b	r13,	r12	
    5fd6:	4c 4c       	mov.b	r12,	r12	
    5fd8:	0f 4c       	mov	r12,	r15	
    5fda:	8f 10       	swpb	r15		
    5fdc:	3b f0 ff f0 	and	#-3841,	r11	;#0xf0ff
    5fe0:	0b df       	bis	r15,	r11	
    5fe2:	0c 4f       	mov	r15,	r12	
    5fe4:	0c 5c       	rla	r12		
    5fe6:	0c 5c       	rla	r12		
    5fe8:	0c 5c       	rla	r12		
    5fea:	0c 5c       	rla	r12		
    5fec:	3b f0 ff 0f 	and	#4095,	r11	;#0x0fff
    5ff0:	d2 43 fe 11 	mov.b	#1,	&0x11fe	;r3 As==01
    5ff4:	0f 4b       	mov	r11,	r15	
    5ff6:	0f dc       	bis	r12,	r15	
    5ff8:	b0 12 e4 45 	call	#0x45e4	
    5ffc:	0f 49       	mov	r9,	r15	
    5ffe:	b0 12 de 45 	call	#0x45de	
    6002:	4e 47       	mov.b	r7,	r14	
    6004:	4f 43       	clr.b	r15		
    6006:	b0 12 50 46 	call	#0x4650	
    600a:	92 43 a6 01 	mov	#1,	&0x01a6	;r3 As==01
    600e:	4b 43       	clr.b	r11		
    6010:	01 3c       	jmp	$+4      	;abs 0x6014
    6012:	7b 42       	mov.b	#8,	r11	;r2 As==11
    6014:	4f 48       	mov.b	r8,	r15	
    6016:	b0 12 58 4c 	call	#0x4c58	
    601a:	02 3c       	jmp	$+6      	;abs 0x6020
    601c:	7b 40 06 00 	mov.b	#6,	r11	;#0x0006
    6020:	4f 4b       	mov.b	r11,	r15	
    6022:	37 41       	pop	r7		
    6024:	38 41       	pop	r8		
    6026:	39 41       	pop	r9		
    6028:	3a 41       	pop	r10		
    602a:	3b 41       	pop	r11		
    602c:	30 41       	ret			

0000602e <AdcP__configure>:
    602e:	7f 90 03 00 	cmp.b	#3,	r15	;#0x0003
    6032:	05 2c       	jc	$+12     	;abs 0x603e
    6034:	4e 4f       	mov.b	r15,	r14	
    6036:	0e 5e       	rla	r14		
    6038:	1e 4e 8c a0 	mov	-24436(r14),r14	;0xa08c(r14)
    603c:	02 3c       	jmp	$+6      	;abs 0x6042
    603e:	3e 40 78 a0 	mov	#-24456,r14	;#0xa078
    6042:	6d 4e       	mov.b	@r14,	r13	
    6044:	7d f0 0f 00 	and.b	#15,	r13	;#0x000f
    6048:	7d 90 0c 00 	cmp.b	#12,	r13	;#0x000c
    604c:	0e 24       	jz	$+30     	;abs 0x606a
    604e:	5f 93       	cmp.b	#1,	r15	;r3 As==01
    6050:	06 24       	jz	$+14     	;abs 0x605e
    6052:	03 28       	jnc	$+8      	;abs 0x605a
    6054:	6f 93       	cmp.b	#2,	r15	;r3 As==10
    6056:	0c 20       	jnz	$+26     	;abs 0x6070
    6058:	04 3c       	jmp	$+10     	;abs 0x6062
    605a:	4f 43       	clr.b	r15		
    605c:	03 3c       	jmp	$+8      	;abs 0x6064
    605e:	6f 43       	mov.b	#2,	r15	;r3 As==10
    6060:	01 3c       	jmp	$+4      	;abs 0x6064
    6062:	6f 42       	mov.b	#4,	r15	;r2 As==10
    6064:	b0 12 32 5f 	call	#0x5f32	
    6068:	30 41       	ret			
    606a:	7f 40 06 00 	mov.b	#6,	r15	;#0x0006
    606e:	30 41       	ret			
    6070:	5f 43       	mov.b	#1,	r15	;r3 As==01
    6072:	30 41       	ret			

00006074 <AdcStreamP__ReadStream__read>:
    6074:	0b 12       	push	r11		
    6076:	4b 4f       	mov.b	r15,	r11	
    6078:	0f 4e       	mov	r14,	r15	
    607a:	0e 4d       	mov	r13,	r14	
    607c:	0c 4e       	mov	r14,	r12	
    607e:	0d 4f       	mov	r15,	r13	
    6080:	0c f3       	and	#0,	r12	;r3 As==00
    6082:	3d f3       	and	#-1,	r13	;r3 As==11
    6084:	0c 93       	tst	r12		
    6086:	02 20       	jnz	$+6      	;abs 0x608c
    6088:	0d 93       	tst	r13		
    608a:	31 24       	jz	$+100    	;abs 0x60ee
    608c:	3c 40 e8 03 	mov	#1000,	r12	;#0x03e8
    6090:	0d 43       	clr	r13		
    6092:	b0 12 8a 87 	call	#0x878a	
    6096:	82 4e 68 12 	mov	r14,	&0x1268	
    609a:	82 4f 6a 12 	mov	r15,	&0x126a	
    609e:	d2 43 06 12 	mov.b	#1,	&0x1206	;r3 As==01
    60a2:	c2 4b 10 11 	mov.b	r11,	&0x1110	
    60a6:	b0 12 5e 52 	call	#0x525e	
    60aa:	82 4e 46 13 	mov	r14,	&0x1346	
    60ae:	82 4f 48 13 	mov	r15,	&0x1348	
    60b2:	6b 93       	cmp.b	#2,	r11	;r3 As==10
    60b4:	05 2c       	jc	$+12     	;abs 0x60c0
    60b6:	4f 4b       	mov.b	r11,	r15	
    60b8:	0f 5f       	rla	r15		
    60ba:	1e 4f 88 a0 	mov	-24440(r15),r14	;0xa088(r15)
    60be:	02 3c       	jmp	$+6      	;abs 0x60c4
    60c0:	3e 40 70 a0 	mov	#-24464,r14	;#0xa070
    60c4:	4b 93       	tst.b	r11		
    60c6:	03 24       	jz	$+8      	;abs 0x60ce
    60c8:	5b 93       	cmp.b	#1,	r11	;r3 As==01
    60ca:	07 20       	jnz	$+16     	;abs 0x60da
    60cc:	02 3c       	jmp	$+6      	;abs 0x60d2
    60ce:	5f 43       	mov.b	#1,	r15	;r3 As==01
    60d0:	02 3c       	jmp	$+6      	;abs 0x60d6
    60d2:	7f 40 03 00 	mov.b	#3,	r15	;#0x0003
    60d6:	b0 12 32 5f 	call	#0x5f32	
    60da:	4f 43       	clr.b	r15		
    60dc:	b0 12 80 55 	call	#0x5580	
    60e0:	4f 93       	tst.b	r15		
    60e2:	15 20       	jnz	$+44     	;abs 0x610e
    60e4:	5f 42 10 11 	mov.b	&0x1110,r15	
    60e8:	b0 12 e0 59 	call	#0x59e0	
    60ec:	10 3c       	jmp	$+34     	;abs 0x610e
    60ee:	82 4e 68 12 	mov	r14,	&0x1268	
    60f2:	82 4f 6a 12 	mov	r15,	&0x126a	
    60f6:	c2 43 06 12 	mov.b	#0,	&0x1206	;r3 As==00
    60fa:	c2 4b 10 11 	mov.b	r11,	&0x1110	
    60fe:	4f 43       	clr.b	r15		
    6100:	b0 12 80 55 	call	#0x5580	
    6104:	4f 93       	tst.b	r15		
    6106:	03 20       	jnz	$+8      	;abs 0x610e
    6108:	4f 4b       	mov.b	r11,	r15	
    610a:	b0 12 fc 59 	call	#0x59fc	
    610e:	4f 43       	clr.b	r15		
    6110:	3b 41       	pop	r11		
    6112:	30 41       	ret			

00006114 <SimpleArbiterP__0__Resource__release>:
    6114:	0b 12       	push	r11		
    6116:	0a 12       	push	r10		
    6118:	09 12       	push	r9		
    611a:	08 12       	push	r8		
    611c:	4b 4f       	mov.b	r15,	r11	
    611e:	b0 12 46 4c 	call	#0x4c46	
    6122:	49 4f       	mov.b	r15,	r9	
    6124:	e2 93 4c 11 	cmp.b	#2,	&0x114c	;r3 As==10
    6128:	3f 20       	jnz	$+128    	;abs 0x61a8
    612a:	c2 9b 12 11 	cmp.b	r11,	&0x1112	
    612e:	3c 20       	jnz	$+122    	;abs 0x61a8
    6130:	c2 93 0a 12 	tst.b	&0x120a	
    6134:	05 20       	jnz	$+12     	;abs 0x6140
    6136:	f2 43 12 11 	mov.b	#-1,	&0x1112	;r3 As==11
    613a:	c2 43 4c 11 	mov.b	#0,	&0x114c	;r3 As==00
    613e:	2f 3c       	jmp	$+96     	;abs 0x619e
    6140:	5f 42 4e 11 	mov.b	&0x114e,r15	
    6144:	0d 4f       	mov	r15,	r13	
    6146:	1d 53       	inc	r13		
    6148:	3d 90 05 00 	cmp	#5,	r13	;#0x0005
    614c:	01 20       	jnz	$+4      	;abs 0x6150
    614e:	0d 43       	clr	r13		
    6150:	4b 4d       	mov.b	r13,	r11	
    6152:	4e 4d       	mov.b	r13,	r14	
    6154:	12 c3       	clrc			
    6156:	4e 10       	rrc.b	r14		
    6158:	12 c3       	clrc			
    615a:	4e 10       	rrc.b	r14		
    615c:	12 c3       	clrc			
    615e:	4e 10       	rrc.b	r14		
    6160:	4e 4e       	mov.b	r14,	r14	
    6162:	58 4e 0a 12 	mov.b	4618(r14),r8	;0x120a(r14)
    6166:	1c 43       	mov	#1,	r12	;r3 As==01
    6168:	4a 4b       	mov.b	r11,	r10	
    616a:	7a f0 07 00 	and.b	#7,	r10	;#0x0007
    616e:	4a 93       	tst.b	r10		
    6170:	03 24       	jz	$+8      	;abs 0x6178
    6172:	0c 5c       	rla	r12		
    6174:	7a 53       	add.b	#-1,	r10	;r3 As==11
    6176:	fb 3f       	jmp	$-8      	;abs 0x616e
    6178:	48 bc       	bit.b	r12,	r8	
    617a:	06 24       	jz	$+14     	;abs 0x6188
    617c:	48 cc       	bic.b	r12,	r8	
    617e:	ce 48 0a 12 	mov.b	r8,	4618(r14);0x120a(r14)
    6182:	c2 4b 4e 11 	mov.b	r11,	&0x114e	
    6186:	03 3c       	jmp	$+8      	;abs 0x618e
    6188:	0d 9f       	cmp	r15,	r13	
    618a:	dd 23       	jnz	$-68     	;abs 0x6146
    618c:	7b 43       	mov.b	#-1,	r11	;r3 As==11
    618e:	c2 4b 12 11 	mov.b	r11,	&0x1112	
    6192:	d2 43 4c 11 	mov.b	#1,	&0x114c	;r3 As==01
    6196:	7f 40 0a 00 	mov.b	#10,	r15	;#0x000a
    619a:	b0 12 36 4d 	call	#0x4d36	
    619e:	4f 49       	mov.b	r9,	r15	
    61a0:	b0 12 58 4c 	call	#0x4c58	
    61a4:	4f 43       	clr.b	r15		
    61a6:	04 3c       	jmp	$+10     	;abs 0x61b0
    61a8:	4f 49       	mov.b	r9,	r15	
    61aa:	b0 12 58 4c 	call	#0x4c58	
    61ae:	5f 43       	mov.b	#1,	r15	;r3 As==01
    61b0:	38 41       	pop	r8		
    61b2:	39 41       	pop	r9		
    61b4:	3a 41       	pop	r10		
    61b6:	3b 41       	pop	r11		
    61b8:	30 41       	ret			

000061ba <Msp430RefVoltArbiterImplP__AdcResource__release>:
    61ba:	7f 90 05 00 	cmp.b	#5,	r15	;#0x0005
    61be:	11 2c       	jc	$+36     	;abs 0x61e2
    61c0:	4f 4f       	mov.b	r15,	r15	
    61c2:	0f 5f       	rla	r15		
    61c4:	10 4f 6a 9f 	br	-24726(r15)	;0x9f6a(r15)
    61c8:	4f 43       	clr.b	r15		
    61ca:	08 3c       	jmp	$+18     	;abs 0x61dc
    61cc:	5f 43       	mov.b	#1,	r15	;r3 As==01
    61ce:	06 3c       	jmp	$+14     	;abs 0x61dc
    61d0:	6f 43       	mov.b	#2,	r15	;r3 As==10
    61d2:	04 3c       	jmp	$+10     	;abs 0x61dc
    61d4:	7f 40 03 00 	mov.b	#3,	r15	;#0x0003
    61d8:	01 3c       	jmp	$+4      	;abs 0x61dc
    61da:	6f 42       	mov.b	#4,	r15	;r2 As==10
    61dc:	b0 12 14 61 	call	#0x6114	
    61e0:	30 41       	ret			
    61e2:	5f 43       	mov.b	#1,	r15	;r3 As==01
    61e4:	30 41       	ret			

000061e6 <Msp430RefVoltArbiterImplP__ClientResource__release>:
    61e6:	0b 12       	push	r11		
    61e8:	4b 4f       	mov.b	r15,	r11	
    61ea:	c2 9f 11 11 	cmp.b	r15,	&0x1111	
    61ee:	04 20       	jnz	$+10     	;abs 0x61f8
    61f0:	7f 40 0b 00 	mov.b	#11,	r15	;#0x000b
    61f4:	b0 12 36 4d 	call	#0x4d36	
    61f8:	4f 4b       	mov.b	r11,	r15	
    61fa:	b0 12 ba 61 	call	#0x61ba	
    61fe:	3b 41       	pop	r11		
    6200:	30 41       	ret			

00006202 <AdcP__ResourceRead__release>:
    6202:	4f 93       	tst.b	r15		
    6204:	03 24       	jz	$+8      	;abs 0x620c
    6206:	5f 93       	cmp.b	#1,	r15	;r3 As==01
    6208:	04 20       	jnz	$+10     	;abs 0x6212
    620a:	6f 43       	mov.b	#2,	r15	;r3 As==10
    620c:	b0 12 e6 61 	call	#0x61e6	
    6210:	30 41       	ret			
    6212:	5f 43       	mov.b	#1,	r15	;r3 As==01
    6214:	30 41       	ret			

00006216 <AdcP__ResourceRead__granted>:
    6216:	0b 12       	push	r11		
    6218:	0a 12       	push	r10		
    621a:	4b 4f       	mov.b	r15,	r11	
    621c:	b0 12 2e 60 	call	#0x602e	
    6220:	4a 4f       	mov.b	r15,	r10	
    6222:	4f 93       	tst.b	r15		
    6224:	0e 20       	jnz	$+30     	;abs 0x6242
    6226:	c2 43 f8 11 	mov.b	#0,	&0x11f8	;r3 As==00
    622a:	5b 93       	cmp.b	#1,	r11	;r3 As==01
    622c:	04 24       	jz	$+10     	;abs 0x6236
    622e:	06 28       	jnc	$+14     	;abs 0x623c
    6230:	6b 93       	cmp.b	#2,	r11	;r3 As==10
    6232:	0f 20       	jnz	$+32     	;abs 0x6252
    6234:	02 3c       	jmp	$+6      	;abs 0x623a
    6236:	6f 43       	mov.b	#2,	r15	;r3 As==10
    6238:	01 3c       	jmp	$+4      	;abs 0x623c
    623a:	6f 42       	mov.b	#4,	r15	;r2 As==10
    623c:	b0 12 9e 58 	call	#0x589e	
    6240:	08 3c       	jmp	$+18     	;abs 0x6252
    6242:	4f 4b       	mov.b	r11,	r15	
    6244:	b0 12 02 62 	call	#0x6202	
    6248:	0d 43       	clr	r13		
    624a:	4e 4a       	mov.b	r10,	r14	
    624c:	4f 4b       	mov.b	r11,	r15	
    624e:	b0 12 32 4b 	call	#0x4b32	
    6252:	3a 41       	pop	r10		
    6254:	3b 41       	pop	r11		
    6256:	30 41       	ret			

00006258 <Msp430RefVoltArbiterImplP__ClientResource__granted>:
    6258:	7f 90 05 00 	cmp.b	#5,	r15	;#0x0005
    625c:	22 2c       	jc	$+70     	;abs 0x62a2
    625e:	4f 4f       	mov.b	r15,	r15	
    6260:	0f 5f       	rla	r15		
    6262:	10 4f 74 9f 	br	-24716(r15)	;0x9f74(r15)
    6266:	4f 43       	clr.b	r15		
    6268:	07 3c       	jmp	$+16     	;abs 0x6278
    626a:	1d 42 be 11 	mov	&0x11be,r13	
    626e:	1e 42 c0 11 	mov	&0x11c0,r14	
    6272:	4f 43       	clr.b	r15		
    6274:	09 3c       	jmp	$+20     	;abs 0x6288
    6276:	5f 43       	mov.b	#1,	r15	;r3 As==01
    6278:	b0 12 16 62 	call	#0x6216	
    627c:	30 41       	ret			
    627e:	1d 42 c2 11 	mov	&0x11c2,r13	
    6282:	1e 42 c4 11 	mov	&0x11c4,r14	
    6286:	5f 43       	mov.b	#1,	r15	;r3 As==01
    6288:	b0 12 74 60 	call	#0x6074	
    628c:	30 41       	ret			
    628e:	6f 43       	mov.b	#2,	r15	;r3 As==10
    6290:	b0 12 2e 60 	call	#0x602e	
    6294:	4f 93       	tst.b	r15		
    6296:	03 20       	jnz	$+8      	;abs 0x629e
    6298:	d2 43 f8 11 	mov.b	#1,	&0x11f8	;r3 As==01
    629c:	30 41       	ret			
    629e:	e2 43 f8 11 	mov.b	#2,	&0x11f8	;r3 As==10
    62a2:	30 41       	ret			

000062a4 <Msp430RefVoltGeneratorP__signalStartDone.isra.252>:
    62a4:	0e 4f       	mov	r15,	r14	
    62a6:	5f 42 11 11 	mov.b	&0x1111,r15	
    62aa:	1e 93       	cmp	#1,	r14	;r3 As==01
    62ac:	03 24       	jz	$+8      	;abs 0x62b4
    62ae:	3e 90 03 00 	cmp	#3,	r14	;#0x0003
    62b2:	05 20       	jnz	$+12     	;abs 0x62be
    62b4:	7f 93       	cmp.b	#-1,	r15	;r3 As==11
    62b6:	07 24       	jz	$+16     	;abs 0x62c6
    62b8:	b0 12 58 62 	call	#0x6258	
    62bc:	30 41       	ret			
    62be:	7f 93       	cmp.b	#-1,	r15	;r3 As==11
    62c0:	02 24       	jz	$+6      	;abs 0x62c6
    62c2:	b0 12 58 62 	call	#0x6258	
    62c6:	30 41       	ret			

000062c8 <AdcStreamP__ReadStream__readDone.isra.255>:
    62c8:	4f 93       	tst.b	r15		
    62ca:	03 24       	jz	$+8      	;abs 0x62d2
    62cc:	5f 93       	cmp.b	#1,	r15	;r3 As==01
    62ce:	09 20       	jnz	$+20     	;abs 0x62e2
    62d0:	04 3c       	jmp	$+10     	;abs 0x62da
    62d2:	5f 43       	mov.b	#1,	r15	;r3 As==01
    62d4:	b0 12 e6 61 	call	#0x61e6	
    62d8:	30 41       	ret			
    62da:	7f 40 03 00 	mov.b	#3,	r15	;#0x0003
    62de:	b0 12 e6 61 	call	#0x61e6	
    62e2:	30 41       	ret			

000062e4 <Msp430RefVoltGeneratorP__switchOff>:
    62e4:	0b 12       	push	r11		
    62e6:	0a 12       	push	r10		
    62e8:	b0 12 46 4c 	call	#0x4c46	
    62ec:	4a 4f       	mov.b	r15,	r10	
    62ee:	1e 42 a2 01 	mov	&0x01a2,r14	
    62f2:	5e f3       	and.b	#1,	r14	;r3 As==01
    62f4:	05 24       	jz	$+12     	;abs 0x6300
    62f6:	b0 12 58 4c 	call	#0x4c58	
    62fa:	7f 40 05 00 	mov.b	#5,	r15	;#0x0005
    62fe:	10 3c       	jmp	$+34     	;abs 0x6320
    6300:	b0 12 d2 45 	call	#0x45d2	
    6304:	0b 4f       	mov	r15,	r11	
    6306:	3f f0 fd ff 	and	#-3,	r15	;#0xfffd
    630a:	b0 12 d8 45 	call	#0x45d8	
    630e:	0f 4b       	mov	r11,	r15	
    6310:	3f f0 dd ff 	and	#-35,	r15	;#0xffdd
    6314:	b0 12 d8 45 	call	#0x45d8	
    6318:	4f 4a       	mov.b	r10,	r15	
    631a:	b0 12 58 4c 	call	#0x4c58	
    631e:	4f 43       	clr.b	r15		
    6320:	3a 41       	pop	r10		
    6322:	3b 41       	pop	r11		
    6324:	30 41       	ret			

00006326 <Msp430RefVoltGeneratorP__stop>:
    6326:	0b 12       	push	r11		
    6328:	1e 42 cc 12 	mov	&0x12cc,r14	
    632c:	0e 93       	tst	r14		
    632e:	26 24       	jz	$+78     	;abs 0x637c
    6330:	0d 4e       	mov	r14,	r13	
    6332:	3d 53       	add	#-1,	r13	;r3 As==11
    6334:	2d 93       	cmp	#2,	r13	;r3 As==10
    6336:	0a 2c       	jc	$+22     	;abs 0x634c
    6338:	82 4f cc 12 	mov	r15,	&0x12cc	
    633c:	3d 40 14 00 	mov	#20,	r13	;#0x0014
    6340:	0e 43       	clr	r14		
    6342:	7f 40 06 00 	mov.b	#6,	r15	;#0x0006
    6346:	b0 12 f0 54 	call	#0x54f0	
    634a:	16 3c       	jmp	$+46     	;abs 0x6378
    634c:	0d 4e       	mov	r14,	r13	
    634e:	3d 50 fd ff 	add	#-3,	r13	;#0xfffd
    6352:	2d 93       	cmp	#2,	r13	;r3 As==10
    6354:	0f 2c       	jc	$+32     	;abs 0x6374
    6356:	b0 12 e4 62 	call	#0x62e4	
    635a:	4b 4f       	mov.b	r15,	r11	
    635c:	4f 93       	tst.b	r15		
    635e:	13 20       	jnz	$+40     	;abs 0x6386
    6360:	1f 42 cc 12 	mov	&0x12cc,r15	
    6364:	f2 f0 fd ff 46 12 	and.b	#-3,	&0x1246	;#0xfffd
    636a:	82 43 cc 12 	mov	#0,	&0x12cc	;r3 As==00
    636e:	b0 12 a4 62 	call	#0x62a4	
    6372:	09 3c       	jmp	$+20     	;abs 0x6386
    6374:	0e 9f       	cmp	r15,	r14	
    6376:	05 20       	jnz	$+12     	;abs 0x6382
    6378:	4b 43       	clr.b	r11		
    637a:	05 3c       	jmp	$+12     	;abs 0x6386
    637c:	7b 40 09 00 	mov.b	#9,	r11	;#0x0009
    6380:	02 3c       	jmp	$+6      	;abs 0x6386
    6382:	7b 40 05 00 	mov.b	#5,	r11	;#0x0005
    6386:	4f 4b       	mov.b	r11,	r15	
    6388:	3b 41       	pop	r11		
    638a:	30 41       	ret			

0000638c <SensirionSht11LogicP__0__CLOCK__set>:
    638c:	b0 12 46 4c 	call	#0x4c46	
    6390:	f2 d0 40 00 21 00 	bis.b	#64,	&0x0021	;#0x0040
    6396:	b0 12 58 4c 	call	#0x4c58	
    639a:	30 41       	ret			

0000639c <Msp430GpioC__4__GeneralIO__clr>:
    639c:	b0 12 46 4c 	call	#0x4c46	
    63a0:	f2 f0 bf ff 21 00 	and.b	#-65,	&0x0021	;#0xffbf
    63a6:	b0 12 58 4c 	call	#0x4c58	
    63aa:	30 41       	ret			

000063ac <SensirionSht11LogicP__0__DATA__makeOutput>:
    63ac:	b0 12 46 4c 	call	#0x4c46	
    63b0:	f2 d0 20 00 22 00 	bis.b	#32,	&0x0022	;#0x0020
    63b6:	b0 12 58 4c 	call	#0x4c58	
    63ba:	30 41       	ret			

000063bc <Msp430GpioC__3__GeneralIO__clr>:
    63bc:	b0 12 46 4c 	call	#0x4c46	
    63c0:	f2 f0 df ff 21 00 	and.b	#-33,	&0x0021	;#0xffdf
    63c6:	b0 12 58 4c 	call	#0x4c58	
    63ca:	30 41       	ret			

000063cc <Msp430GpioC__3__GeneralIO__makeInput>:
    63cc:	b0 12 46 4c 	call	#0x4c46	
    63d0:	f2 f0 df ff 22 00 	and.b	#-33,	&0x0022	;#0xffdf
    63d6:	b0 12 58 4c 	call	#0x4c58	
    63da:	30 41       	ret			

000063dc <SensirionSht11LogicP__0__DATA__set>:
    63dc:	b0 12 46 4c 	call	#0x4c46	
    63e0:	f2 d0 20 00 21 00 	bis.b	#32,	&0x0021	;#0x0020
    63e6:	b0 12 58 4c 	call	#0x4c58	
    63ea:	30 41       	ret			

000063ec <SensirionSht11LogicP__0__readByte>:
    63ec:	0b 12       	push	r11		
    63ee:	0a 12       	push	r10		
    63f0:	4a 43       	clr.b	r10		
    63f2:	4b 43       	clr.b	r11		
    63f4:	b0 12 8c 63 	call	#0x638c	
    63f8:	f2 b0 20 00 20 00 	bit.b	#32,	&0x0020	;#0x0020
    63fe:	01 24       	jz	$+4      	;abs 0x6402
    6400:	5b d3       	bis.b	#1,	r11	;r3 As==01
    6402:	7a 90 07 00 	cmp.b	#7,	r10	;#0x0007
    6406:	01 24       	jz	$+4      	;abs 0x640a
    6408:	4b 5b       	rla.b	r11		
    640a:	b0 12 9c 63 	call	#0x639c	
    640e:	5a 53       	inc.b	r10		
    6410:	7a 92       	cmp.b	#8,	r10	;r2 As==11
    6412:	f0 23       	jnz	$-30     	;abs 0x63f4
    6414:	b0 12 ac 63 	call	#0x63ac	
    6418:	b0 12 bc 63 	call	#0x63bc	
    641c:	b0 12 8c 63 	call	#0x638c	
    6420:	b0 12 9c 63 	call	#0x639c	
    6424:	b0 12 cc 63 	call	#0x63cc	
    6428:	b0 12 dc 63 	call	#0x63dc	
    642c:	4f 4b       	mov.b	r11,	r15	
    642e:	3a 41       	pop	r10		
    6430:	3b 41       	pop	r11		
    6432:	30 41       	ret			

00006434 <SensirionSht11LogicP__0__writeByte>:
    6434:	0b 12       	push	r11		
    6436:	0a 12       	push	r10		
    6438:	4b 4f       	mov.b	r15,	r11	
    643a:	7a 42       	mov.b	#8,	r10	;r2 As==11
    643c:	4b 93       	tst.b	r11		
    643e:	03 34       	jge	$+8      	;abs 0x6446
    6440:	b0 12 dc 63 	call	#0x63dc	
    6444:	02 3c       	jmp	$+6      	;abs 0x644a
    6446:	b0 12 bc 63 	call	#0x63bc	
    644a:	4b 5b       	rla.b	r11		
    644c:	b0 12 8c 63 	call	#0x638c	
    6450:	b0 12 9c 63 	call	#0x639c	
    6454:	7a 53       	add.b	#-1,	r10	;r3 As==11
    6456:	f2 23       	jnz	$-26     	;abs 0x643c
    6458:	3a 41       	pop	r10		
    645a:	3b 41       	pop	r11		
    645c:	30 41       	ret			

0000645e <SensirionSht11LogicP__0__waitForResponse>:
    645e:	b0 12 cc 63 	call	#0x63cc	
    6462:	b0 12 dc 63 	call	#0x63dc	
    6466:	b0 12 8c 63 	call	#0x638c	
    646a:	f2 b0 20 00 20 00 	bit.b	#32,	&0x0020	;#0x0020
    6470:	04 20       	jnz	$+10     	;abs 0x647a
    6472:	b0 12 9c 63 	call	#0x639c	
    6476:	4f 43       	clr.b	r15		
    6478:	30 41       	ret			
    647a:	5f 43       	mov.b	#1,	r15	;r3 As==01
    647c:	30 41       	ret			

0000647e <PowerManagerP__0__SplitControl__start>:
    647e:	b0 12 46 4c 	call	#0x4c46	
    6482:	f2 d0 80 ff 22 00 	bis.b	#-128,	&0x0022	;#0xff80
    6488:	b0 12 58 4c 	call	#0x4c58	
    648c:	b0 12 46 4c 	call	#0x4c46	
    6490:	f2 d0 80 ff 21 00 	bis.b	#-128,	&0x0021	;#0xff80
    6496:	b0 12 58 4c 	call	#0x4c58	
    649a:	3d 40 0b 00 	mov	#11,	r13	;#0x000b
    649e:	0e 43       	clr	r14		
    64a0:	7f 40 03 00 	mov.b	#3,	r15	;#0x0003
    64a4:	b0 12 f0 54 	call	#0x54f0	
    64a8:	4f 43       	clr.b	r15		
    64aa:	30 41       	ret			

000064ac <SensirionSht11LogicP__0__enableInterrupt>:
    64ac:	0b 12       	push	r11		
    64ae:	b0 12 cc 63 	call	#0x63cc	
    64b2:	b0 12 dc 63 	call	#0x63dc	
    64b6:	b0 12 46 4c 	call	#0x4c46	
    64ba:	4b 4f       	mov.b	r15,	r11	
    64bc:	b0 12 74 5c 	call	#0x5c74	
    64c0:	f2 d0 20 00 24 00 	bis.b	#32,	&0x0024	;#0x0020
    64c6:	f2 d0 20 00 25 00 	bis.b	#32,	&0x0025	;#0x0020
    64cc:	4f 4b       	mov.b	r11,	r15	
    64ce:	b0 12 58 4c 	call	#0x4c58	
    64d2:	3b 41       	pop	r11		
    64d4:	30 41       	ret			

000064d6 <SensirionSht11LogicP__0__performCommand>:
    64d6:	0b 12       	push	r11		
    64d8:	b0 12 46 4c 	call	#0x4c46	
    64dc:	f2 d0 40 00 22 00 	bis.b	#64,	&0x0022	;#0x0040
    64e2:	b0 12 58 4c 	call	#0x4c58	
    64e6:	b0 12 9c 63 	call	#0x639c	
    64ea:	b0 12 cc 63 	call	#0x63cc	
    64ee:	b0 12 dc 63 	call	#0x63dc	
    64f2:	b0 12 74 5c 	call	#0x5c74	
    64f6:	b0 12 ac 63 	call	#0x63ac	
    64fa:	b0 12 dc 63 	call	#0x63dc	
    64fe:	b0 12 9c 63 	call	#0x639c	
    6502:	7b 40 09 00 	mov.b	#9,	r11	;#0x0009
    6506:	b0 12 8c 63 	call	#0x638c	
    650a:	b0 12 9c 63 	call	#0x639c	
    650e:	7b 53       	add.b	#-1,	r11	;r3 As==11
    6510:	fa 23       	jnz	$-10     	;abs 0x6506
    6512:	b0 12 ac 63 	call	#0x63ac	
    6516:	b0 12 dc 63 	call	#0x63dc	
    651a:	b0 12 9c 63 	call	#0x639c	
    651e:	b0 12 8c 63 	call	#0x638c	
    6522:	b0 12 bc 63 	call	#0x63bc	
    6526:	b0 12 9c 63 	call	#0x639c	
    652a:	b0 12 8c 63 	call	#0x638c	
    652e:	b0 12 dc 63 	call	#0x63dc	
    6532:	b0 12 9c 63 	call	#0x639c	
    6536:	1f 42 6c 11 	mov	&0x116c,r15	
    653a:	3f f0 1f 00 	and	#31,	r15	;#0x001f
    653e:	82 4f 6c 11 	mov	r15,	&0x116c	
    6542:	4f 4f       	mov.b	r15,	r15	
    6544:	b0 12 34 64 	call	#0x6434	
    6548:	b0 12 5e 64 	call	#0x645e	
    654c:	4f 93       	tst.b	r15		
    654e:	04 24       	jz	$+10     	;abs 0x6558
    6550:	c2 43 5a 11 	mov.b	#0,	&0x115a	;r3 As==00
    6554:	5f 43       	mov.b	#1,	r15	;r3 As==01
    6556:	50 3c       	jmp	$+162    	;abs 0x65f8
    6558:	1f 42 6c 11 	mov	&0x116c,r15	
    655c:	3f 90 06 00 	cmp	#6,	r15	;#0x0006
    6560:	39 24       	jz	$+116    	;abs 0x65d4
    6562:	3f 90 07 00 	cmp	#7,	r15	;#0x0007
    6566:	07 2c       	jc	$+16     	;abs 0x6576
    6568:	3f 90 03 00 	cmp	#3,	r15	;#0x0003
    656c:	0e 24       	jz	$+30     	;abs 0x658a
    656e:	3f 90 05 00 	cmp	#5,	r15	;#0x0005
    6572:	41 20       	jnz	$+132    	;abs 0x65f6
    6574:	14 3c       	jmp	$+42     	;abs 0x659e
    6576:	3f 90 07 00 	cmp	#7,	r15	;#0x0007
    657a:	1a 24       	jz	$+54     	;abs 0x65b0
    657c:	3f 90 1e 00 	cmp	#30,	r15	;#0x001e
    6580:	3a 20       	jnz	$+118    	;abs 0x65f6
    6582:	3d 40 0b 00 	mov	#11,	r13	;#0x000b
    6586:	0e 43       	clr	r14		
    6588:	0f 3c       	jmp	$+32     	;abs 0x65a8
    658a:	b0 12 ac 64 	call	#0x64ac	
    658e:	5f 42 58 11 	mov.b	&0x1158,r15	
    6592:	1f f3       	and	#1,	r15	;r3 As==01
    6594:	06 20       	jnz	$+14     	;abs 0x65a2
    6596:	3d 40 4a 01 	mov	#330,	r13	;#0x014a
    659a:	0e 43       	clr	r14		
    659c:	05 3c       	jmp	$+12     	;abs 0x65a8
    659e:	b0 12 ac 64 	call	#0x64ac	
    65a2:	3d 40 fa 00 	mov	#250,	r13	;#0x00fa
    65a6:	0e 43       	clr	r14		
    65a8:	6f 42       	mov.b	#4,	r15	;r2 As==10
    65aa:	b0 12 f0 54 	call	#0x54f0	
    65ae:	23 3c       	jmp	$+72     	;abs 0x65f6
    65b0:	b0 12 ec 63 	call	#0x63ec	
    65b4:	4b 4f       	mov.b	r15,	r11	
    65b6:	b0 12 ec 63 	call	#0x63ec	
    65ba:	b0 12 ac 63 	call	#0x63ac	
    65be:	b0 12 dc 63 	call	#0x63dc	
    65c2:	b0 12 8c 63 	call	#0x638c	
    65c6:	b0 12 9c 63 	call	#0x639c	
    65ca:	c2 4b 58 11 	mov.b	r11,	&0x1158	
    65ce:	6f 42       	mov.b	#4,	r15	;r2 As==10
    65d0:	b0 12 36 4d 	call	#0x4d36	
    65d4:	5f 42 ca 12 	mov.b	&0x12ca,r15	
    65d8:	b0 12 34 64 	call	#0x6434	
    65dc:	b0 12 5e 64 	call	#0x645e	
    65e0:	4f 93       	tst.b	r15		
    65e2:	03 24       	jz	$+8      	;abs 0x65ea
    65e4:	d2 43 56 11 	mov.b	#1,	&0x1156	;r3 As==01
    65e8:	03 3c       	jmp	$+8      	;abs 0x65f0
    65ea:	d2 42 ca 12 58 11 	mov.b	&0x12ca,&0x1158	
    65f0:	6f 42       	mov.b	#4,	r15	;r2 As==10
    65f2:	b0 12 36 4d 	call	#0x4d36	
    65f6:	4f 43       	clr.b	r15		
    65f8:	3b 41       	pop	r11		
    65fa:	30 41       	ret			

000065fc <Msp430RefVoltGeneratorP__switchOn>:
    65fc:	0b 12       	push	r11		
    65fe:	0a 12       	push	r10		
    6600:	09 12       	push	r9		
    6602:	49 4f       	mov.b	r15,	r9	
    6604:	b0 12 46 4c 	call	#0x4c46	
    6608:	4a 4f       	mov.b	r15,	r10	
    660a:	1e 42 a2 01 	mov	&0x01a2,r14	
    660e:	5e f3       	and.b	#1,	r14	;r3 As==01
    6610:	05 24       	jz	$+12     	;abs 0x661c
    6612:	b0 12 58 4c 	call	#0x4c58	
    6616:	7f 40 05 00 	mov.b	#5,	r15	;#0x0005
    661a:	1c 3c       	jmp	$+58     	;abs 0x6654
    661c:	b0 12 d2 45 	call	#0x45d2	
    6620:	0b 4f       	mov	r15,	r11	
    6622:	3b f0 fd ff 	and	#-3,	r11	;#0xfffd
    6626:	0f 4b       	mov	r11,	r15	
    6628:	b0 12 d8 45 	call	#0x45d8	
    662c:	3b d0 20 00 	bis	#32,	r11	;#0x0020
    6630:	4e 49       	mov.b	r9,	r14	
    6632:	7e 53       	add.b	#-1,	r14	;r3 As==11
    6634:	1e f3       	and	#1,	r14	;r3 As==01
    6636:	7d 40 06 00 	mov.b	#6,	r13	;#0x0006
    663a:	0e 5e       	rla	r14		
    663c:	7d 53       	add.b	#-1,	r13	;r3 As==11
    663e:	fd 23       	jnz	$-4      	;abs 0x663a
    6640:	3b f0 bf ff 	and	#-65,	r11	;#0xffbf
    6644:	0f 4b       	mov	r11,	r15	
    6646:	0f de       	bis	r14,	r15	
    6648:	b0 12 d8 45 	call	#0x45d8	
    664c:	4f 4a       	mov.b	r10,	r15	
    664e:	b0 12 58 4c 	call	#0x4c58	
    6652:	4f 43       	clr.b	r15		
    6654:	39 41       	pop	r9		
    6656:	3a 41       	pop	r10		
    6658:	3b 41       	pop	r11		
    665a:	30 41       	ret			

0000665c <Msp430RefVoltGeneratorP__start>:
    665c:	0b 12       	push	r11		
    665e:	0a 12       	push	r10		
    6660:	0b 4f       	mov	r15,	r11	
    6662:	1f 42 cc 12 	mov	&0x12cc,r15	
    6666:	0e 4f       	mov	r15,	r14	
    6668:	3e 53       	add	#-1,	r14	;r3 As==11
    666a:	2e 93       	cmp	#2,	r14	;r3 As==10
    666c:	11 2c       	jc	$+36     	;abs 0x6690
    666e:	0b 9f       	cmp	r15,	r11	
    6670:	64 24       	jz	$+202    	;abs 0x673a
    6672:	4f 4b       	mov.b	r11,	r15	
    6674:	b0 12 fc 65 	call	#0x65fc	
    6678:	4a 4f       	mov.b	r15,	r10	
    667a:	4f 93       	tst.b	r15		
    667c:	63 20       	jnz	$+200    	;abs 0x6744
    667e:	92 93 cc 12 	cmp	#1,	&0x12cc	;r3 As==01
    6682:	4b 20       	jnz	$+152    	;abs 0x671a
    6684:	a2 42 cc 12 	mov	#4,	&0x12cc	;r2 As==10
    6688:	3d 40 11 00 	mov	#17,	r13	;#0x0011
    668c:	0e 43       	clr	r14		
    668e:	4b 3c       	jmp	$+152    	;abs 0x6726
    6690:	0f 93       	tst	r15		
    6692:	20 20       	jnz	$+66     	;abs 0x66d4
    6694:	4f 4b       	mov.b	r11,	r15	
    6696:	b0 12 fc 65 	call	#0x65fc	
    669a:	4a 4f       	mov.b	r15,	r10	
    669c:	4f 93       	tst.b	r15		
    669e:	52 20       	jnz	$+166    	;abs 0x6744
    66a0:	1b 93       	cmp	#1,	r11	;r3 As==01
    66a2:	0a 20       	jnz	$+22     	;abs 0x66b8
    66a4:	e2 b3 5a 12 	bit.b	#2,	&0x125a	;r3 As==10
    66a8:	0f 43       	clr	r15		
    66aa:	0f 6f       	rlc	r15		
    66ac:	4f 93       	tst.b	r15		
    66ae:	04 24       	jz	$+10     	;abs 0x66b8
    66b0:	3d 40 46 00 	mov	#70,	r13	;#0x0046
    66b4:	0e 43       	clr	r14		
    66b6:	03 3c       	jmp	$+8      	;abs 0x66be
    66b8:	3d 40 11 00 	mov	#17,	r13	;#0x0011
    66bc:	0e 43       	clr	r14		
    66be:	7f 40 05 00 	mov.b	#5,	r15	;#0x0005
    66c2:	b0 12 f0 54 	call	#0x54f0	
    66c6:	f2 f0 fd ff 5a 12 	and.b	#-3,	&0x125a	;#0xfffd
    66cc:	2b 53       	incd	r11		
    66ce:	82 4b cc 12 	mov	r11,	&0x12cc	
    66d2:	38 3c       	jmp	$+114    	;abs 0x6744
    66d4:	0e 4f       	mov	r15,	r14	
    66d6:	3e 50 fb ff 	add	#-5,	r14	;#0xfffb
    66da:	2e 93       	cmp	#2,	r14	;r3 As==10
    66dc:	29 2c       	jc	$+84     	;abs 0x6730
    66de:	4f 4b       	mov.b	r11,	r15	
    66e0:	b0 12 fc 65 	call	#0x65fc	
    66e4:	4a 4f       	mov.b	r15,	r10	
    66e6:	4f 93       	tst.b	r15		
    66e8:	2d 20       	jnz	$+92     	;abs 0x6744
    66ea:	f2 f0 fd ff 50 12 	and.b	#-3,	&0x1250	;#0xfffd
    66f0:	1f 42 cc 12 	mov	&0x12cc,r15	
    66f4:	0e 4f       	mov	r15,	r14	
    66f6:	2e 82       	sub	#4,	r14	;r2 As==10
    66f8:	0b 9e       	cmp	r14,	r11	
    66fa:	06 20       	jnz	$+14     	;abs 0x6708
    66fc:	82 4b cc 12 	mov	r11,	&0x12cc	
    6700:	0f 4b       	mov	r11,	r15	
    6702:	b0 12 a4 62 	call	#0x62a4	
    6706:	1e 3c       	jmp	$+62     	;abs 0x6744
    6708:	3f 90 05 00 	cmp	#5,	r15	;#0x0005
    670c:	06 20       	jnz	$+14     	;abs 0x671a
    670e:	a2 42 cc 12 	mov	#4,	&0x12cc	;r2 As==10
    6712:	3d 40 11 00 	mov	#17,	r13	;#0x0011
    6716:	0e 43       	clr	r14		
    6718:	08 3c       	jmp	$+18     	;abs 0x672a
    671a:	b2 40 03 00 cc 12 	mov	#3,	&0x12cc	;#0x0003
    6720:	3d 40 46 00 	mov	#70,	r13	;#0x0046
    6724:	0e 43       	clr	r14		
    6726:	7f 40 05 00 	mov.b	#5,	r15	;#0x0005
    672a:	b0 12 f0 54 	call	#0x54f0	
    672e:	0a 3c       	jmp	$+22     	;abs 0x6744
    6730:	2b 53       	incd	r11		
    6732:	0f 9b       	cmp	r11,	r15	
    6734:	05 20       	jnz	$+12     	;abs 0x6740
    6736:	4a 43       	clr.b	r10		
    6738:	05 3c       	jmp	$+12     	;abs 0x6744
    673a:	7a 40 09 00 	mov.b	#9,	r10	;#0x0009
    673e:	02 3c       	jmp	$+6      	;abs 0x6744
    6740:	7a 40 05 00 	mov.b	#5,	r10	;#0x0005
    6744:	4f 4a       	mov.b	r10,	r15	
    6746:	3a 41       	pop	r10		
    6748:	3b 41       	pop	r11		
    674a:	30 41       	ret			

0000674c <Msp430RefVoltArbiterImplP__AdcResource__granted>:
    674c:	0b 12       	push	r11		
    674e:	4b 4f       	mov.b	r15,	r11	
    6750:	7f 90 05 00 	cmp.b	#5,	r15	;#0x0005
    6754:	05 2c       	jc	$+12     	;abs 0x6760
    6756:	4f 4f       	mov.b	r15,	r15	
    6758:	0f 5f       	rla	r15		
    675a:	1f 4f 92 a0 	mov	-24430(r15),r15	;0xa092(r15)
    675e:	02 3c       	jmp	$+6      	;abs 0x6764
    6760:	3f 40 74 a0 	mov	#-24460,r15	;#0xa074
    6764:	6f 4f       	mov.b	@r15,	r15	
    6766:	4e 4f       	mov.b	r15,	r14	
    6768:	7e f0 70 00 	and.b	#112,	r14	;#0x0070
    676c:	7e 90 10 00 	cmp.b	#16,	r14	;#0x0010
    6770:	03 24       	jz	$+8      	;abs 0x6778
    6772:	7e 90 50 00 	cmp.b	#80,	r14	;#0x0050
    6776:	1b 20       	jnz	$+56     	;abs 0x67ae
    6778:	f2 93 11 11 	cmp.b	#-1,	&0x1111	;r3 As==11
    677c:	11 20       	jnz	$+36     	;abs 0x67a0
    677e:	c2 4b 11 11 	mov.b	r11,	&0x1111	
    6782:	4f 93       	tst.b	r15		
    6784:	04 38       	jl	$+10     	;abs 0x678e
    6786:	c2 43 c9 12 	mov.b	#0,	&0x12c9	;r3 As==00
    678a:	1f 43       	mov	#1,	r15	;r3 As==01
    678c:	03 3c       	jmp	$+8      	;abs 0x6794
    678e:	d2 43 c9 12 	mov.b	#1,	&0x12c9	;r3 As==01
    6792:	2f 43       	mov	#2,	r15	;r3 As==10
    6794:	b0 12 5c 66 	call	#0x665c	
    6798:	4f 93       	tst.b	r15		
    679a:	0c 24       	jz	$+26     	;abs 0x67b4
    679c:	f2 43 11 11 	mov.b	#-1,	&0x1111	;r3 As==11
    67a0:	4f 4b       	mov.b	r11,	r15	
    67a2:	b0 12 ba 61 	call	#0x61ba	
    67a6:	4f 4b       	mov.b	r11,	r15	
    67a8:	b0 12 82 5d 	call	#0x5d82	
    67ac:	03 3c       	jmp	$+8      	;abs 0x67b4
    67ae:	4f 4b       	mov.b	r11,	r15	
    67b0:	b0 12 58 62 	call	#0x6258	
    67b4:	3b 41       	pop	r11		
    67b6:	30 41       	ret			

000067b8 <CC2420ControlP__RSTN__clr>:
    67b8:	b0 12 46 4c 	call	#0x4c46	
    67bc:	f2 f0 bf ff 1d 00 	and.b	#-65,	&0x001d	;#0xffbf
    67c2:	b0 12 58 4c 	call	#0x4c58	
    67c6:	30 41       	ret			

000067c8 <CC2420ControlP__RSTN__set>:
    67c8:	b0 12 46 4c 	call	#0x4c46	
    67cc:	f2 d0 40 00 1d 00 	bis.b	#64,	&0x001d	;#0x0040
    67d2:	b0 12 58 4c 	call	#0x4c58	
    67d6:	30 41       	ret			

000067d8 <CC2420ControlP__writeFsctrl>:
    67d8:	0b 12       	push	r11		
    67da:	b0 12 46 4c 	call	#0x4c46	
    67de:	5b 42 c6 12 	mov.b	&0x12c6,r11	
    67e2:	b0 12 58 4c 	call	#0x4c58	
    67e6:	0f 4b       	mov	r11,	r15	
    67e8:	0f 5f       	rla	r15		
    67ea:	0f 5f       	rla	r15		
    67ec:	0f 5b       	add	r11,	r15	
    67ee:	3f 50 2e 01 	add	#302,	r15	;#0x012e
    67f2:	0e 4f       	mov	r15,	r14	
    67f4:	3e d0 00 40 	bis	#16384,	r14	;#0x4000
    67f8:	7f 40 18 00 	mov.b	#24,	r15	;#0x0018
    67fc:	b0 12 66 5b 	call	#0x5b66	
    6800:	3b 41       	pop	r11		
    6802:	30 41       	ret			

00006804 <CC2420ControlP__writeMdmctrl0>:
    6804:	0b 12       	push	r11		
    6806:	b0 12 46 4c 	call	#0x4c46	
    680a:	4b 4f       	mov.b	r15,	r11	
    680c:	c2 93 b4 11 	tst.b	&0x11b4	
    6810:	04 24       	jz	$+10     	;abs 0x681a
    6812:	1e 43       	mov	#1,	r14	;r3 As==01
    6814:	c2 93 44 13 	tst.b	&0x1344	
    6818:	01 20       	jnz	$+4      	;abs 0x681c
    681a:	0e 43       	clr	r14		
    681c:	4e 4e       	mov.b	r14,	r14	
    681e:	8e 10       	swpb	r14		
    6820:	0e 5e       	rla	r14		
    6822:	0e 5e       	rla	r14		
    6824:	0e 5e       	rla	r14		
    6826:	c2 93 d3 11 	tst.b	&0x11d3	
    682a:	04 24       	jz	$+10     	;abs 0x6834
    682c:	1d 43       	mov	#1,	r13	;r3 As==01
    682e:	c2 93 82 12 	tst.b	&0x1282	
    6832:	01 20       	jnz	$+4      	;abs 0x6836
    6834:	0d 43       	clr	r13		
    6836:	3e d0 e2 22 	bis	#8930,	r14	;#0x22e2
    683a:	0d 5d       	rla	r13		
    683c:	0d 5d       	rla	r13		
    683e:	0d 5d       	rla	r13		
    6840:	0d 5d       	rla	r13		
    6842:	0e dd       	bis	r13,	r14	
    6844:	7f 40 11 00 	mov.b	#17,	r15	;#0x0011
    6848:	b0 12 66 5b 	call	#0x5b66	
    684c:	4f 4b       	mov.b	r11,	r15	
    684e:	b0 12 58 4c 	call	#0x4c58	
    6852:	3b 41       	pop	r11		
    6854:	30 41       	ret			

00006856 <Msp430UartP__0__ResourceConfigure__configure.constprop.260>:
    6856:	1f 42 18 11 	mov	&0x1118,r15	
    685a:	12 c3       	clrc			
    685c:	0f 10       	rrc	r15		
    685e:	c2 4f 34 13 	mov.b	r15,	&0x1334	
    6862:	b0 12 46 4c 	call	#0x4c46	
    6866:	d2 43 78 00 	mov.b	#1,	&0x0078	;r3 As==01
    686a:	f2 f0 ef ff 05 00 	and.b	#-17,	&0x0005	;#0xffef
    6870:	f2 f0 fd ff 33 00 	and.b	#-3,	&0x0033	;#0xfffd
    6876:	f2 f0 fb ff 33 00 	and.b	#-5,	&0x0033	;#0xfffb
    687c:	f2 f0 f7 ff 33 00 	and.b	#-9,	&0x0033	;#0xfff7
    6882:	5e 42 1b 11 	mov.b	&0x111b,r14	
    6886:	7e f0 fa ff 	and.b	#-6,	r14	;#0xfffa
    688a:	5e d3       	bis.b	#1,	r14	;r3 As==01
    688c:	c2 4e 78 00 	mov.b	r14,	&0x0078	
    6890:	d2 42 1c 11 79 00 	mov.b	&0x111c,&0x0079	
    6896:	d2 42 1d 11 7a 00 	mov.b	&0x111d,&0x007a	
    689c:	1e 42 18 11 	mov	&0x1118,r14	
    68a0:	c2 4e 7c 00 	mov.b	r14,	&0x007c	
    68a4:	8e 10       	swpb	r14		
    68a6:	4e 4e       	mov.b	r14,	r14	
    68a8:	c2 4e 7d 00 	mov.b	r14,	&0x007d	
    68ac:	d2 42 1a 11 7b 00 	mov.b	&0x111a,&0x007b	
    68b2:	5e 42 1e 11 	mov.b	&0x111e,r14	
    68b6:	7e f0 03 00 	and.b	#3,	r14	;#0x0003
    68ba:	7e 90 03 00 	cmp.b	#3,	r14	;#0x0003
    68be:	0b 20       	jnz	$+24     	;abs 0x68d6
    68c0:	f2 d0 40 00 1b 00 	bis.b	#64,	&0x001b	;#0x0040
    68c6:	f2 d0 80 ff 1b 00 	bis.b	#-128,	&0x001b	;#0xff80
    68cc:	5e 42 05 00 	mov.b	&0x0005,r14	
    68d0:	7e d0 30 00 	bis.b	#48,	r14	;#0x0030
    68d4:	0f 3c       	jmp	$+32     	;abs 0x68f4
    68d6:	6e 93       	cmp.b	#2,	r14	;r3 As==10
    68d8:	10 20       	jnz	$+34     	;abs 0x68fa
    68da:	f2 f0 df ff 05 00 	and.b	#-33,	&0x0005	;#0xffdf
    68e0:	f2 f0 bf ff 1b 00 	and.b	#-65,	&0x001b	;#0xffbf
    68e6:	f2 d0 80 ff 1b 00 	bis.b	#-128,	&0x001b	;#0xff80
    68ec:	5e 42 05 00 	mov.b	&0x0005,r14	
    68f0:	7e d0 10 00 	bis.b	#16,	r14	;#0x0010
    68f4:	c2 4e 05 00 	mov.b	r14,	&0x0005	
    68f8:	19 3c       	jmp	$+52     	;abs 0x692c
    68fa:	5e 93       	cmp.b	#1,	r14	;r3 As==01
    68fc:	0e 20       	jnz	$+30     	;abs 0x691a
    68fe:	f2 f0 ef ff 05 00 	and.b	#-17,	&0x0005	;#0xffef
    6904:	f2 f0 7f 00 1b 00 	and.b	#127,	&0x001b	;#0x007f
    690a:	f2 d0 40 00 1b 00 	bis.b	#64,	&0x001b	;#0x0040
    6910:	5e 42 05 00 	mov.b	&0x0005,r14	
    6914:	7e d0 20 00 	bis.b	#32,	r14	;#0x0020
    6918:	ed 3f       	jmp	$-36     	;abs 0x68f4
    691a:	f2 f0 cf ff 05 00 	and.b	#-49,	&0x0005	;#0xffcf
    6920:	f2 f0 bf ff 1b 00 	and.b	#-65,	&0x001b	;#0xffbf
    6926:	f2 f0 7f 00 1b 00 	and.b	#127,	&0x001b	;#0x007f
    692c:	f2 f0 fe ff 78 00 	and.b	#-2,	&0x0078	;#0xfffe
    6932:	f2 f0 cf ff 03 00 	and.b	#-49,	&0x0003	;#0xffcf
    6938:	f2 f0 cf ff 01 00 	and.b	#-49,	&0x0001	;#0xffcf
    693e:	b0 12 58 4c 	call	#0x4c58	
    6942:	b0 12 46 4c 	call	#0x4c46	
    6946:	f2 f0 cf ff 03 00 	and.b	#-49,	&0x0003	;#0xffcf
    694c:	f2 d0 30 00 01 00 	bis.b	#48,	&0x0001	;#0x0030
    6952:	b0 12 58 4c 	call	#0x4c58	
    6956:	30 41       	ret			

00006958 <CC2420SpiP__WorkingState__requestState.constprop.261>:
    6958:	0b 12       	push	r11		
    695a:	b0 12 46 4c 	call	#0x4c46	
    695e:	c2 93 74 12 	tst.b	&0x1274	
    6962:	04 20       	jnz	$+10     	;abs 0x696c
    6964:	d2 43 74 12 	mov.b	#1,	&0x1274	;r3 As==01
    6968:	4b 43       	clr.b	r11		
    696a:	01 3c       	jmp	$+4      	;abs 0x696e
    696c:	5b 43       	mov.b	#1,	r11	;r3 As==01
    696e:	b0 12 58 4c 	call	#0x4c58	
    6972:	4f 4b       	mov.b	r11,	r15	
    6974:	3b 41       	pop	r11		
    6976:	30 41       	ret			

00006978 <CC2420SpiP__Resource__request>:
    6978:	0b 12       	push	r11		
    697a:	0a 12       	push	r10		
    697c:	4b 4f       	mov.b	r15,	r11	
    697e:	b0 12 46 4c 	call	#0x4c46	
    6982:	4a 4f       	mov.b	r15,	r10	
    6984:	b0 12 58 69 	call	#0x6958	
    6988:	4f 93       	tst.b	r15		
    698a:	2f 20       	jnz	$+96     	;abs 0x69ea
    698c:	c2 4b 0b 11 	mov.b	r11,	&0x110b	
    6990:	c2 93 08 11 	tst.b	&0x1108	
    6994:	3c 20       	jnz	$+122    	;abs 0x6a0e
    6996:	f2 90 03 00 44 11 	cmp.b	#3,	&0x1144	;#0x0003
    699c:	38 20       	jnz	$+114    	;abs 0x6a0e
    699e:	7f 40 14 00 	mov.b	#20,	r15	;#0x0014
    69a2:	b0 12 36 4d 	call	#0x4d36	
    69a6:	2c 3c       	jmp	$+90     	;abs 0x6a00
    69a8:	d2 43 44 11 	mov.b	#1,	&0x1144	;r3 As==01
    69ac:	c2 43 b0 11 	mov.b	#0,	&0x11b0	;r3 As==00
    69b0:	b0 12 0c 4e 	call	#0x4e0c	
    69b4:	25 3c       	jmp	$+76     	;abs 0x6a00
    69b6:	c2 93 b0 11 	tst.b	&0x11b0	
    69ba:	22 24       	jz	$+70     	;abs 0x6a00
    69bc:	1e 43       	mov	#1,	r14	;r3 As==01
    69be:	f2 93 c6 11 	cmp.b	#-1,	&0x11c6	;r3 As==11
    69c2:	04 20       	jnz	$+10     	;abs 0x69cc
    69c4:	c2 93 09 11 	tst.b	&0x1109	
    69c8:	01 24       	jz	$+4      	;abs 0x69cc
    69ca:	0e 43       	clr	r14		
    69cc:	0e 93       	tst	r14		
    69ce:	18 20       	jnz	$+50     	;abs 0x6a00
    69d0:	f2 93 0a 11 	cmp.b	#-1,	&0x110a	;r3 As==11
    69d4:	03 20       	jnz	$+8      	;abs 0x69dc
    69d6:	c2 43 0a 11 	mov.b	#0,	&0x110a	;r3 As==00
    69da:	04 3c       	jmp	$+10     	;abs 0x69e4
    69dc:	5e 42 09 11 	mov.b	&0x1109,r14	
    69e0:	ce 43 c6 11 	mov.b	#0,	4550(r14);r3 As==00, 0x11c6(r14)
    69e4:	c2 43 09 11 	mov.b	#0,	&0x1109	;r3 As==00
    69e8:	0b 3c       	jmp	$+24     	;abs 0x6a00
    69ea:	1e 43       	mov	#1,	r14	;r3 As==01
    69ec:	4d 4b       	mov.b	r11,	r13	
    69ee:	7d f0 0f 00 	and.b	#15,	r13	;#0x000f
    69f2:	4d 93       	tst.b	r13		
    69f4:	03 24       	jz	$+8      	;abs 0x69fc
    69f6:	0e 5e       	rla	r14		
    69f8:	7d 53       	add.b	#-1,	r13	;r3 As==11
    69fa:	fb 3f       	jmp	$-8      	;abs 0x69f2
    69fc:	c2 de 46 11 	bis.b	r14,	&0x1146	
    6a00:	4f 4a       	mov.b	r10,	r15	
    6a02:	b0 12 58 4c 	call	#0x4c58	
    6a06:	4f 43       	clr.b	r15		
    6a08:	3a 41       	pop	r10		
    6a0a:	3b 41       	pop	r11		
    6a0c:	30 41       	ret			
    6a0e:	c2 93 44 11 	tst.b	&0x1144	
    6a12:	d1 23       	jnz	$-92     	;abs 0x69b6
    6a14:	c9 3f       	jmp	$-108    	;abs 0x69a8

00006a16 <HplMsp430Usart0P__Usart__setModeSpi.constprop.262>:
    6a16:	0b 12       	push	r11		
    6a18:	b0 12 46 4c 	call	#0x4c46	
    6a1c:	4b 4f       	mov.b	r15,	r11	
    6a1e:	5f 43       	mov.b	#1,	r15	;r3 As==01
    6a20:	b0 12 5e 4a 	call	#0x4a5e	
    6a24:	f2 f0 da ff 70 00 	and.b	#-38,	&0x0070	;#0xffda
    6a2a:	5f 43       	mov.b	#1,	r15	;r3 As==01
    6a2c:	b0 12 5e 4a 	call	#0x4a5e	
    6a30:	f2 f0 3f 00 04 00 	and.b	#63,	&0x0004	;#0x003f
    6a36:	3e 40 1b 00 	mov	#27,	r14	;#0x001b
    6a3a:	fe f0 ef ff 00 00 	and.b	#-17,	0(r14)	;#0xffef, 0x0000(r14)
    6a40:	fe f0 df ff 00 00 	and.b	#-33,	0(r14)	;#0xffdf, 0x0000(r14)
    6a46:	3d 40 2c 11 	mov	#4396,	r13	;#0x112c
    6a4a:	6f 4d       	mov.b	@r13,	r15	
    6a4c:	7f d0 05 00 	bis.b	#5,	r15	;#0x0005
    6a50:	c2 4f 70 00 	mov.b	r15,	&0x0070	
    6a54:	d2 4d 01 00 71 00 	mov.b	1(r13),	&0x0071	;0x0001(r13)
    6a5a:	1d 42 2a 11 	mov	&0x112a,r13	
    6a5e:	c2 4d 74 00 	mov.b	r13,	&0x0074	
    6a62:	8d 10       	swpb	r13		
    6a64:	4d 4d       	mov.b	r13,	r13	
    6a66:	c2 4d 75 00 	mov.b	r13,	&0x0075	
    6a6a:	c2 43 73 00 	mov.b	#0,	&0x0073	;r3 As==00
    6a6e:	ee d3 00 00 	bis.b	#2,	0(r14)	;r3 As==10, 0x0000(r14)
    6a72:	ee d2 00 00 	bis.b	#4,	0(r14)	;r2 As==10, 0x0000(r14)
    6a76:	fe d2 00 00 	bis.b	#8,	0(r14)	;r2 As==11, 0x0000(r14)
    6a7a:	f2 d0 40 00 04 00 	bis.b	#64,	&0x0004	;#0x0040
    6a80:	4f 43       	clr.b	r15		
    6a82:	b0 12 5e 4a 	call	#0x4a5e	
    6a86:	f2 f0 3f 00 02 00 	and.b	#63,	&0x0002	;#0x003f
    6a8c:	f2 f0 3f 00 00 00 	and.b	#63,	&0x0000	;#0x003f
    6a92:	4f 4b       	mov.b	r11,	r15	
    6a94:	b0 12 58 4c 	call	#0x4c58	
    6a98:	3b 41       	pop	r11		
    6a9a:	30 41       	ret			

00006a9c <CC2420SpiP__Resource__immediateRequest>:
    6a9c:	0b 12       	push	r11		
    6a9e:	0a 12       	push	r10		
    6aa0:	4b 4f       	mov.b	r15,	r11	
    6aa2:	b0 12 46 4c 	call	#0x4c46	
    6aa6:	4a 4f       	mov.b	r15,	r10	
    6aa8:	b0 12 58 69 	call	#0x6958	
    6aac:	4f 93       	tst.b	r15		
    6aae:	06 24       	jz	$+14     	;abs 0x6abc
    6ab0:	4f 4a       	mov.b	r10,	r15	
    6ab2:	b0 12 58 4c 	call	#0x4c58	
    6ab6:	7f 40 05 00 	mov.b	#5,	r15	;#0x0005
    6aba:	1e 3c       	jmp	$+62     	;abs 0x6af8
    6abc:	c2 93 08 11 	tst.b	&0x1108	
    6ac0:	1e 20       	jnz	$+62     	;abs 0x6afe
    6ac2:	f2 90 03 00 44 11 	cmp.b	#3,	&0x1144	;#0x0003
    6ac8:	1a 20       	jnz	$+54     	;abs 0x6afe
    6aca:	0b 3c       	jmp	$+24     	;abs 0x6ae2
    6acc:	e2 43 44 11 	mov.b	#2,	&0x1144	;r3 As==10
    6ad0:	c2 43 b0 11 	mov.b	#0,	&0x11b0	;r3 As==00
    6ad4:	b0 12 0c 4e 	call	#0x4e0c	
    6ad8:	c2 93 08 11 	tst.b	&0x1108	
    6adc:	06 20       	jnz	$+14     	;abs 0x6aea
    6ade:	b0 12 16 6a 	call	#0x6a16	
    6ae2:	c2 4b 0b 11 	mov.b	r11,	&0x110b	
    6ae6:	4b 43       	clr.b	r11		
    6ae8:	03 3c       	jmp	$+8      	;abs 0x6af0
    6aea:	c2 43 44 11 	mov.b	#0,	&0x1144	;r3 As==00
    6aee:	0a 3c       	jmp	$+22     	;abs 0x6b04
    6af0:	4f 4a       	mov.b	r10,	r15	
    6af2:	b0 12 58 4c 	call	#0x4c58	
    6af6:	4f 4b       	mov.b	r11,	r15	
    6af8:	3a 41       	pop	r10		
    6afa:	3b 41       	pop	r11		
    6afc:	30 41       	ret			
    6afe:	c2 93 44 11 	tst.b	&0x1144	
    6b02:	e4 27       	jz	$-54     	;abs 0x6acc
    6b04:	b0 12 46 4c 	call	#0x4c46	
    6b08:	c2 43 74 12 	mov.b	#0,	&0x1274	;r3 As==00
    6b0c:	b0 12 58 4c 	call	#0x4c58	
    6b10:	5b 43       	mov.b	#1,	r11	;r3 As==01
    6b12:	ee 3f       	jmp	$-34     	;abs 0x6af0

00006b14 <CC2420ReceiveP__beginReceive>:
    6b14:	a2 43 ae 11 	mov	#2,	&0x11ae	;r3 As==10
    6b18:	d2 43 ca 11 	mov.b	#1,	&0x11ca	;r3 As==01
    6b1c:	e2 92 0b 11 	cmp.b	#4,	&0x110b	;r2 As==10
    6b20:	05 24       	jz	$+12     	;abs 0x6b2c
    6b22:	6f 42       	mov.b	#4,	r15	;r2 As==10
    6b24:	b0 12 9c 6a 	call	#0x6a9c	
    6b28:	4f 93       	tst.b	r15		
    6b2a:	03 20       	jnz	$+8      	;abs 0x6b32
    6b2c:	b0 12 0a 4f 	call	#0x4f0a	
    6b30:	30 41       	ret			
    6b32:	6f 42       	mov.b	#4,	r15	;r2 As==10
    6b34:	b0 12 78 69 	call	#0x6978	
    6b38:	30 41       	ret			

00006b3a <CC2420ReceiveP__waitForNextPacket>:
    6b3a:	0b 12       	push	r11		
    6b3c:	b0 12 46 4c 	call	#0x4c46	
    6b40:	4b 4f       	mov.b	r15,	r11	
    6b42:	82 93 ae 11 	tst	&0x11ae	
    6b46:	18 24       	jz	$+50     	;abs 0x6b78
    6b48:	c2 43 ca 11 	mov.b	#0,	&0x11ca	;r3 As==00
    6b4c:	5e 42 b5 11 	mov.b	&0x11b5,r14	
    6b50:	4e 93       	tst.b	r14		
    6b52:	03 24       	jz	$+8      	;abs 0x6b5a
    6b54:	f2 b2 20 00 	bit.b	#8,	&0x0020	;r2 As==11
    6b58:	05 20       	jnz	$+12     	;abs 0x6b64
    6b5a:	d2 b3 20 00 	bit.b	#1,	&0x0020	;r3 As==01
    6b5e:	08 20       	jnz	$+18     	;abs 0x6b70
    6b60:	4e 93       	tst.b	r14		
    6b62:	03 24       	jz	$+8      	;abs 0x6b6a
    6b64:	7e 53       	add.b	#-1,	r14	;r3 As==11
    6b66:	c2 4e b5 11 	mov.b	r14,	&0x11b5	
    6b6a:	b0 12 14 6b 	call	#0x6b14	
    6b6e:	07 3c       	jmp	$+16     	;abs 0x6b7e
    6b70:	92 43 ae 11 	mov	#1,	&0x11ae	;r3 As==01
    6b74:	c2 43 b5 11 	mov.b	#0,	&0x11b5	;r3 As==00
    6b78:	6f 42       	mov.b	#4,	r15	;r2 As==10
    6b7a:	b0 12 5e 4f 	call	#0x4f5e	
    6b7e:	4f 4b       	mov.b	r11,	r15	
    6b80:	b0 12 58 4c 	call	#0x4c58	
    6b84:	3b 41       	pop	r11		
    6b86:	30 41       	ret			

00006b88 <CC2420ReceiveP__flush>:
    6b88:	b0 12 1a 47 	call	#0x471a	
    6b8c:	b0 12 50 4f 	call	#0x4f50	
    6b90:	b0 12 26 4d 	call	#0x4d26	
    6b94:	7f 42       	mov.b	#8,	r15	;r2 As==11
    6b96:	b0 12 f6 4c 	call	#0x4cf6	
    6b9a:	7f 42       	mov.b	#8,	r15	;r2 As==11
    6b9c:	b0 12 f6 4c 	call	#0x4cf6	
    6ba0:	b0 12 50 4f 	call	#0x4f50	
    6ba4:	6f 42       	mov.b	#4,	r15	;r2 As==10
    6ba6:	b0 12 5e 4f 	call	#0x4f5e	
    6baa:	b0 12 3a 6b 	call	#0x6b3a	
    6bae:	30 41       	ret			

00006bb0 <Msp430SpiNoDmaP__0__signalDone>:
    6bb0:	0b 12       	push	r11		
    6bb2:	0a 12       	push	r10		
    6bb4:	09 12       	push	r9		
    6bb6:	08 12       	push	r8		
    6bb8:	07 12       	push	r7		
    6bba:	17 42 6c 12 	mov	&0x126c,r7	
    6bbe:	c2 93 f0 11 	tst.b	&0x11f0	
    6bc2:	02 24       	jz	$+6      	;abs 0x6bc8
    6bc4:	30 40 b2 6e 	br	#0x6eb2	
    6bc8:	1f 42 f2 11 	mov	&0x11f2,r15	
    6bcc:	3f b0 40 00 	bit	#64,	r15	;#0x0040
    6bd0:	02 20       	jnz	$+6      	;abs 0x6bd6
    6bd2:	30 40 4a 6e 	br	#0x6e4a	
    6bd6:	7f f0 bf ff 	and.b	#-65,	r15	;#0xffbf
    6bda:	7f 90 3f 00 	cmp.b	#63,	r15	;#0x003f
    6bde:	02 24       	jz	$+6      	;abs 0x6be4
    6be0:	30 40 b2 6e 	br	#0x6eb2	
    6be4:	1b 42 62 11 	mov	&0x1162,r11	
    6be8:	6e 4b       	mov.b	@r11,	r14	
    6bea:	c2 4e b1 11 	mov.b	r14,	&0x11b1	
    6bee:	1f 42 ae 11 	mov	&0x11ae,r15	
    6bf2:	3f 90 05 00 	cmp	#5,	r15	;#0x0005
    6bf6:	39 24       	jz	$+116    	;abs 0x6c6a
    6bf8:	3f 90 06 00 	cmp	#6,	r15	;#0x0006
    6bfc:	84 24       	jz	$+266    	;abs 0x6d06
    6bfe:	2f 93       	cmp	#2,	r15	;r3 As==10
    6c00:	02 24       	jz	$+6      	;abs 0x6c06
    6c02:	30 40 3a 6e 	br	#0x6e3a	
    6c06:	b2 40 05 00 ae 11 	mov	#5,	&0x11ae	;#0x0005
    6c0c:	5d 42 84 11 	mov.b	&0x1184,r13	
    6c10:	4d 9e       	cmp.b	r14,	r13	
    6c12:	27 24       	jz	$+80     	;abs 0x6c62
    6c14:	26 28       	jnc	$+78     	;abs 0x6c62
    6c16:	f2 b2 20 00 	bit.b	#8,	&0x0020	;r2 As==11
    6c1a:	08 20       	jnz	$+18     	;abs 0x6c2c
    6c1c:	d2 b3 20 00 	bit.b	#1,	&0x0020	;r3 As==01
    6c20:	05 20       	jnz	$+12     	;abs 0x6c2c
    6c22:	4f 4e       	mov.b	r14,	r15	
    6c24:	7f e3       	xor.b	#-1,	r15	;r3 As==11
    6c26:	4f 5d       	add.b	r13,	r15	
    6c28:	c2 4f 84 11 	mov.b	r15,	&0x1184	
    6c2c:	7e 90 2a 00 	cmp.b	#42,	r14	;#0x002a
    6c30:	18 2c       	jc	$+50     	;abs 0x6c62
    6c32:	4e 93       	tst.b	r14		
    6c34:	0e 24       	jz	$+30     	;abs 0x6c52
    6c36:	0f 4b       	mov	r11,	r15	
    6c38:	1f 53       	inc	r15		
    6c3a:	7e 92       	cmp.b	#8,	r14	;r2 As==11
    6c3c:	03 28       	jnc	$+8      	;abs 0x6c44
    6c3e:	7e 40 07 00 	mov.b	#7,	r14	;#0x0007
    6c42:	03 3c       	jmp	$+8      	;abs 0x6c4a
    6c44:	b2 40 06 00 ae 11 	mov	#6,	&0x11ae	;#0x0006
    6c4a:	b0 12 74 4e 	call	#0x4e74	
    6c4e:	30 40 b2 6e 	br	#0x6eb2	
    6c52:	c2 43 ca 11 	mov.b	#0,	&0x11ca	;r3 As==00
    6c56:	b0 12 50 4f 	call	#0x4f50	
    6c5a:	6f 42       	mov.b	#4,	r15	;r2 As==10
    6c5c:	b0 12 5e 4f 	call	#0x4f5e	
    6c60:	e9 3c       	jmp	$+468    	;abs 0x6e34
    6c62:	b0 12 88 6b 	call	#0x6b88	
    6c66:	30 40 b2 6e 	br	#0x6eb2	
    6c6a:	b2 40 06 00 ae 11 	mov	#6,	&0x11ae	;#0x0006
    6c70:	c2 93 d3 11 	tst.b	&0x11d3	
    6c74:	41 24       	jz	$+132    	;abs 0x6cf8
    6c76:	c2 93 82 12 	tst.b	&0x1282	
    6c7a:	3e 20       	jnz	$+126    	;abs 0x6cf8
    6c7c:	5f 4b 02 00 	mov.b	2(r11),	r15	;0x0002(r11)
    6c80:	8f 10       	swpb	r15		
    6c82:	5e 4b 01 00 	mov.b	1(r11),	r14	;0x0001(r11)
    6c86:	0f de       	bis	r14,	r15	
    6c88:	3f f0 20 00 	and	#32,	r15	;#0x0020
    6c8c:	35 24       	jz	$+108    	;abs 0x6cf8
    6c8e:	5a 4b 07 00 	mov.b	7(r11),	r10	;0x0007(r11)
    6c92:	8a 10       	swpb	r10		
    6c94:	5f 4b 06 00 	mov.b	6(r11),	r15	;0x0006(r11)
    6c98:	0a df       	bis	r15,	r10	
    6c9a:	b0 12 46 4c 	call	#0x4c46	
    6c9e:	19 42 ee 11 	mov	&0x11ee,r9	
    6ca2:	b0 12 58 4c 	call	#0x4c58	
    6ca6:	0a 99       	cmp	r9,	r10	
    6ca8:	08 24       	jz	$+18     	;abs 0x6cba
    6caa:	5f 4b 07 00 	mov.b	7(r11),	r15	;0x0007(r11)
    6cae:	8f 10       	swpb	r15		
    6cb0:	5e 4b 06 00 	mov.b	6(r11),	r14	;0x0006(r11)
    6cb4:	0f de       	bis	r14,	r15	
    6cb6:	3f 93       	cmp	#-1,	r15	;r3 As==11
    6cb8:	1f 20       	jnz	$+64     	;abs 0x6cf8
    6cba:	5f 4b 02 00 	mov.b	2(r11),	r15	;0x0002(r11)
    6cbe:	8f 10       	swpb	r15		
    6cc0:	5e 4b 01 00 	mov.b	1(r11),	r14	;0x0001(r11)
    6cc4:	0f de       	bis	r14,	r15	
    6cc6:	3f f0 07 00 	and	#7,	r15	;#0x0007
    6cca:	1f 93       	cmp	#1,	r15	;r3 As==01
    6ccc:	15 20       	jnz	$+44     	;abs 0x6cf8
    6cce:	b0 12 50 4f 	call	#0x4f50	
    6cd2:	b0 12 26 4d 	call	#0x4d26	
    6cd6:	7f 40 0a 00 	mov.b	#10,	r15	;#0x000a
    6cda:	b0 12 f6 4c 	call	#0x4cf6	
    6cde:	b0 12 50 4f 	call	#0x4f50	
    6ce2:	b0 12 26 4d 	call	#0x4d26	
    6ce6:	5e 42 b1 11 	mov.b	&0x11b1,r14	
    6cea:	7e 50 f9 ff 	add.b	#-7,	r14	;#0xfff9
    6cee:	0f 4b       	mov	r11,	r15	
    6cf0:	3f 52       	add	#8,	r15	;r2 As==11
    6cf2:	b0 12 a0 4e 	call	#0x4ea0	
    6cf6:	dd 3c       	jmp	$+444    	;abs 0x6eb2
    6cf8:	5e 42 b1 11 	mov.b	&0x11b1,r14	
    6cfc:	7e 50 f9 ff 	add.b	#-7,	r14	;#0xfff9
    6d00:	0f 4b       	mov	r11,	r15	
    6d02:	3f 52       	add	#8,	r15	;r2 As==11
    6d04:	a2 3f       	jmp	$-186    	;abs 0x6c4a
    6d06:	b0 12 50 4f 	call	#0x4f50	
    6d0a:	c2 93 b5 11 	tst.b	&0x11b5	
    6d0e:	03 20       	jnz	$+8      	;abs 0x6d16
    6d10:	6f 42       	mov.b	#4,	r15	;r2 As==10
    6d12:	b0 12 5e 4f 	call	#0x4f5e	
    6d16:	c2 93 b5 11 	tst.b	&0x11b5	
    6d1a:	03 24       	jz	$+8      	;abs 0x6d22
    6d1c:	f2 b2 20 00 	bit.b	#8,	&0x0020	;r2 As==11
    6d20:	0b 20       	jnz	$+24     	;abs 0x6d38
    6d22:	d2 b3 20 00 	bit.b	#1,	&0x0020	;r3 As==01
    6d26:	08 24       	jz	$+18     	;abs 0x6d38
    6d28:	5a 42 28 13 	mov.b	&0x1328,r10	
    6d2c:	4a 93       	tst.b	r10		
    6d2e:	04 24       	jz	$+10     	;abs 0x6d38
    6d30:	f2 90 0b 00 b1 11 	cmp.b	#11,	&0x11b1	;#0x000b
    6d36:	0e 2c       	jc	$+30     	;abs 0x6d54
    6d38:	1f 42 62 11 	mov	&0x1162,r15	
    6d3c:	cf 43 2d 00 	mov.b	#0,	45(r15)	;r3 As==00, 0x002d(r15)
    6d40:	cf 43 31 00 	mov.b	#0,	49(r15)	;r3 As==00, 0x0031(r15)
    6d44:	cf 43 30 00 	mov.b	#0,	48(r15)	;r3 As==00, 0x0030(r15)
    6d48:	cf 43 2f 00 	mov.b	#0,	47(r15)	;r3 As==00, 0x002f(r15)
    6d4c:	ff 40 80 ff 2e 00 	mov.b	#-128,	46(r15)	;#0xff80, 0x002e(r15)
    6d52:	37 3c       	jmp	$+112    	;abs 0x6dc2
    6d54:	59 42 30 13 	mov.b	&0x1330,r9	
    6d58:	5a 93       	cmp.b	#1,	r10	;r3 As==01
    6d5a:	19 20       	jnz	$+52     	;abs 0x6d8e
    6d5c:	0f 49       	mov	r9,	r15	
    6d5e:	0f 5f       	rla	r15		
    6d60:	0f 5f       	rla	r15		
    6d62:	3f 50 d4 12 	add	#4820,	r15	;#0x12d4
    6d66:	28 4f       	mov	@r15,	r8	
    6d68:	1c 4f 02 00 	mov	2(r15),	r12	;0x0002(r15)
    6d6c:	1d 42 62 11 	mov	&0x1162,r13	
    6d70:	cd 48 31 00 	mov.b	r8,	49(r13)	;0x0031(r13)
    6d74:	0e 4c       	mov	r12,	r14	
    6d76:	0f 48       	mov	r8,	r15	
    6d78:	8f 10       	swpb	r15		
    6d7a:	8e 10       	swpb	r14		
    6d7c:	4f ee       	xor.b	r14,	r15	
    6d7e:	0f ee       	xor	r14,	r15	
    6d80:	cd 4f 30 00 	mov.b	r15,	48(r13)	;0x0030(r13)
    6d84:	cd 4c 2f 00 	mov.b	r12,	47(r13)	;0x002f(r13)
    6d88:	8c 10       	swpb	r12		
    6d8a:	cd 4c 2e 00 	mov.b	r12,	46(r13)	;0x002e(r13)
    6d8e:	19 53       	inc	r9		
    6d90:	79 f0 07 00 	and.b	#7,	r9	;#0x0007
    6d94:	c2 49 30 13 	mov.b	r9,	&0x1330	
    6d98:	7a 53       	add.b	#-1,	r10	;r3 As==11
    6d9a:	c2 4a 28 13 	mov.b	r10,	&0x1328	
    6d9e:	11 24       	jz	$+36     	;abs 0x6dc2
    6da0:	1f 42 62 11 	mov	&0x1162,r15	
    6da4:	cf 43 2d 00 	mov.b	#0,	45(r15)	;r3 As==00, 0x002d(r15)
    6da8:	cf 43 31 00 	mov.b	#0,	49(r15)	;r3 As==00, 0x0031(r15)
    6dac:	cf 43 30 00 	mov.b	#0,	48(r15)	;r3 As==00, 0x0030(r15)
    6db0:	cf 43 2f 00 	mov.b	#0,	47(r15)	;r3 As==00, 0x002f(r15)
    6db4:	ff 40 80 ff 2e 00 	mov.b	#-128,	46(r15)	;#0xff80, 0x002e(r15)
    6dba:	c2 43 30 13 	mov.b	#0,	&0x1330	;r3 As==00
    6dbe:	c2 43 28 13 	mov.b	#0,	&0x1328	;r3 As==00
    6dc2:	5f 42 b1 11 	mov.b	&0x11b1,r15	
    6dc6:	0f 5b       	add	r11,	r15	
    6dc8:	cf 93 00 00 	tst.b	0(r15)		;0x0000(r15)
    6dcc:	33 34       	jge	$+104    	;abs 0x6e34
    6dce:	07 93       	tst	r7		
    6dd0:	31 24       	jz	$+100    	;abs 0x6e34
    6dd2:	5f 4b 02 00 	mov.b	2(r11),	r15	;0x0002(r11)
    6dd6:	8f 10       	swpb	r15		
    6dd8:	5f db 01 00 	bis.b	1(r11),	r15	;0x0001(r11)
    6ddc:	7f f0 07 00 	and.b	#7,	r15	;#0x0007
    6de0:	1d 42 62 11 	mov	&0x1162,r13	
    6de4:	6f 93       	cmp.b	#2,	r15	;r3 As==10
    6de6:	1f 20       	jnz	$+64     	;abs 0x6e26
    6de8:	1f 42 d6 11 	mov	&0x11d6,r15	
    6dec:	0f 93       	tst	r15		
    6dee:	22 24       	jz	$+70     	;abs 0x6e34
    6df0:	b2 90 07 00 36 11 	cmp	#7,	&0x1136	;#0x0007
    6df6:	1e 20       	jnz	$+62     	;abs 0x6e34
    6df8:	df 9d 03 00 03 00 	cmp.b	3(r13),	3(r15)	;0x0003(r13), 0x0003(r15)
    6dfe:	1a 20       	jnz	$+54     	;abs 0x6e34
    6e00:	b2 f0 ef ff 88 01 	and	#-17,	&0x0188	;#0xffef
    6e06:	6e 4d       	mov.b	@r13,	r14	
    6e08:	df 43 2c 00 	mov.b	#1,	44(r15)	;r3 As==01, 0x002c(r15)
    6e0c:	0e 5d       	add	r13,	r14	
    6e0e:	df 4e ff ff 28 00 	mov.b	-1(r14),40(r15)	;0xffff(r14), 0x0028(r15)
    6e14:	6e 4e       	mov.b	@r14,	r14	
    6e16:	7e f0 7f 00 	and.b	#127,	r14	;#0x007f
    6e1a:	cf 4e 29 00 	mov.b	r14,	41(r15)	;0x0029(r15)
    6e1e:	4f 43       	clr.b	r15		
    6e20:	b0 12 36 4f 	call	#0x4f36	
    6e24:	07 3c       	jmp	$+16     	;abs 0x6e34
    6e26:	5f 93       	cmp.b	#1,	r15	;r3 As==01
    6e28:	05 20       	jnz	$+12     	;abs 0x6e34
    6e2a:	7f 40 17 00 	mov.b	#23,	r15	;#0x0017
    6e2e:	b0 12 36 4d 	call	#0x4d36	
    6e32:	3f 3c       	jmp	$+128    	;abs 0x6eb2
    6e34:	b0 12 3a 6b 	call	#0x6b3a	
    6e38:	3c 3c       	jmp	$+122    	;abs 0x6eb2
    6e3a:	c2 43 ca 11 	mov.b	#0,	&0x11ca	;r3 As==00
    6e3e:	b0 12 50 4f 	call	#0x4f50	
    6e42:	6f 42       	mov.b	#4,	r15	;r2 As==10
    6e44:	b0 12 5e 4f 	call	#0x4f5e	
    6e48:	34 3c       	jmp	$+106    	;abs 0x6eb2
    6e4a:	7f 90 3e 00 	cmp.b	#62,	r15	;#0x003e
    6e4e:	31 20       	jnz	$+100    	;abs 0x6eb2
    6e50:	b0 12 50 4f 	call	#0x4f50	
    6e54:	b2 92 36 11 	cmp	#8,	&0x1136	;r2 As==11
    6e58:	11 20       	jnz	$+36     	;abs 0x6e7c
    6e5a:	b0 12 26 4d 	call	#0x4d26	
    6e5e:	7f 40 09 00 	mov.b	#9,	r15	;#0x0009
    6e62:	b0 12 f6 4c 	call	#0x4cf6	
    6e66:	b0 12 50 4f 	call	#0x4f50	
    6e6a:	b0 12 1a 50 	call	#0x501a	
    6e6e:	92 43 36 11 	mov	#1,	&0x1136	;r3 As==01
    6e72:	7f 40 03 00 	mov.b	#3,	r15	;#0x0003
    6e76:	b0 12 1a 4f 	call	#0x4f1a	
    6e7a:	1b 3c       	jmp	$+56     	;abs 0x6eb2
    6e7c:	c2 93 52 13 	tst.b	&0x1352	
    6e80:	05 20       	jnz	$+12     	;abs 0x6e8c
    6e82:	a2 42 36 11 	mov	#4,	&0x1136	;r2 As==10
    6e86:	b0 12 c6 51 	call	#0x51c6	
    6e8a:	13 3c       	jmp	$+40     	;abs 0x6eb2
    6e8c:	b0 12 1a 50 	call	#0x501a	
    6e90:	b2 40 03 00 36 11 	mov	#3,	&0x1136	;#0x0003
    6e96:	b0 12 60 45 	call	#0x4560	
    6e9a:	3e 40 36 01 	mov	#310,	r14	;#0x0136
    6e9e:	b0 12 82 87 	call	#0x8782	
    6ea2:	0e 4f       	mov	r15,	r14	
    6ea4:	3e 50 0b 00 	add	#11,	r14	;#0x000b
    6ea8:	82 4e 7e 11 	mov	r14,	&0x117e	
    6eac:	0f 43       	clr	r15		
    6eae:	b0 12 54 51 	call	#0x5154	
    6eb2:	37 41       	pop	r7		
    6eb4:	38 41       	pop	r8		
    6eb6:	39 41       	pop	r9		
    6eb8:	3a 41       	pop	r10		
    6eba:	3b 41       	pop	r11		
    6ebc:	30 41       	ret			

00006ebe <CC2420TinyosNetworkP__ActiveSend__send.isra.225>:
    6ebe:	0b 12       	push	r11		
    6ec0:	0a 12       	push	r10		
    6ec2:	09 12       	push	r9		
    6ec4:	0b 4f       	mov	r15,	r11	
    6ec6:	b0 12 46 4c 	call	#0x4c46	
    6eca:	4a 4f       	mov.b	r15,	r10	
    6ecc:	0f 4b       	mov	r11,	r15	
    6ece:	b0 12 d4 46 	call	#0x46d4	
    6ed2:	ff 40 3f 00 00 00 	mov.b	#63,	0(r15)	;#0x003f, 0x0000(r15)
    6ed8:	4f 4a       	mov.b	r10,	r15	
    6eda:	b0 12 58 4c 	call	#0x4c58	
    6ede:	82 43 3c 13 	mov	#0,	&0x133c	;r3 As==00
    6ee2:	b0 12 46 4c 	call	#0x4c46	
    6ee6:	c2 93 76 12 	tst.b	&0x1276	
    6eea:	04 20       	jnz	$+10     	;abs 0x6ef4
    6eec:	d2 43 76 12 	mov.b	#1,	&0x1276	;r3 As==01
    6ef0:	4a 43       	clr.b	r10		
    6ef2:	01 3c       	jmp	$+4      	;abs 0x6ef6
    6ef4:	5a 43       	mov.b	#1,	r10	;r3 As==01
    6ef6:	b0 12 58 4c 	call	#0x4c58	
    6efa:	4a 93       	tst.b	r10		
    6efc:	71 20       	jnz	$+228    	;abs 0x6fe0
    6efe:	5f 42 c8 12 	mov.b	&0x12c8,r15	
    6f02:	4e 4f       	mov.b	r15,	r14	
    6f04:	5e 53       	inc.b	r14		
    6f06:	c2 4e c8 12 	mov.b	r14,	&0x12c8	
    6f0a:	cb 4f 03 00 	mov.b	r15,	3(r11)	;0x0003(r11)
    6f0e:	b0 12 46 4c 	call	#0x4c46	
    6f12:	4a 4f       	mov.b	r15,	r10	
    6f14:	b0 12 46 4c 	call	#0x4c46	
    6f18:	59 42 75 12 	mov.b	&0x1275,r9	
    6f1c:	b0 12 58 4c 	call	#0x4c58	
    6f20:	69 93       	cmp.b	#2,	r9	;r3 As==10
    6f22:	0b 24       	jz	$+24     	;abs 0x6f3a
    6f24:	4f 4a       	mov.b	r10,	r15	
    6f26:	b0 12 58 4c 	call	#0x4c58	
    6f2a:	b0 12 46 4c 	call	#0x4c46	
    6f2e:	c2 43 76 12 	mov.b	#0,	&0x1276	;r3 As==00
    6f32:	b0 12 58 4c 	call	#0x4c58	
    6f36:	5f 43       	mov.b	#1,	r15	;r3 As==01
    6f38:	55 3c       	jmp	$+172    	;abs 0x6fe4
    6f3a:	6f 42       	mov.b	#4,	r15	;r2 As==10
    6f3c:	b0 12 c2 5d 	call	#0x5dc2	
    6f40:	82 4b fc 11 	mov	r11,	&0x11fc	
    6f44:	4f 4a       	mov.b	r10,	r15	
    6f46:	b0 12 58 4c 	call	#0x4c58	
    6f4a:	5f 4b 02 00 	mov.b	2(r11),	r15	;0x0002(r11)
    6f4e:	8f 10       	swpb	r15		
    6f50:	5e 4b 01 00 	mov.b	1(r11),	r14	;0x0001(r11)
    6f54:	0f de       	bis	r14,	r15	
    6f56:	3f f0 20 cc 	and	#-13280,r15	;#0xcc20
    6f5a:	4e 4f       	mov.b	r15,	r14	
    6f5c:	3e d0 41 00 	bis	#65,	r14	;#0x0041
    6f60:	8f 10       	swpb	r15		
    6f62:	4f 4f       	mov.b	r15,	r15	
    6f64:	8f 10       	swpb	r15		
    6f66:	0e df       	bis	r15,	r14	
    6f68:	cb 4e 01 00 	mov.b	r14,	1(r11)	;0x0001(r11)
    6f6c:	8e 10       	swpb	r14		
    6f6e:	cb 4e 02 00 	mov.b	r14,	2(r11)	;0x0002(r11)
    6f72:	cb 43 2c 00 	mov.b	#0,	44(r11)	;r3 As==00, 0x002c(r11)
    6f76:	cb 43 28 00 	mov.b	#0,	40(r11)	;r3 As==00, 0x0028(r11)
    6f7a:	cb 43 29 00 	mov.b	#0,	41(r11)	;r3 As==00, 0x0029(r11)
    6f7e:	cb 43 31 00 	mov.b	#0,	49(r11)	;r3 As==00, 0x0031(r11)
    6f82:	cb 43 30 00 	mov.b	#0,	48(r11)	;r3 As==00, 0x0030(r11)
    6f86:	cb 43 2f 00 	mov.b	#0,	47(r11)	;r3 As==00, 0x002f(r11)
    6f8a:	fb 40 80 ff 2e 00 	mov.b	#-128,	46(r11)	;#0xff80, 0x002e(r11)
    6f90:	d2 43 78 12 	mov.b	#1,	&0x1278	;r3 As==01
    6f94:	1b 42 fc 11 	mov	&0x11fc,r11	
    6f98:	b0 12 46 4c 	call	#0x4c46	
    6f9c:	1e 42 36 11 	mov	&0x1136,r14	
    6fa0:	3e 92       	cmp	#8,	r14	;r2 As==11
    6fa2:	02 24       	jz	$+6      	;abs 0x6fa8
    6fa4:	1e 93       	cmp	#1,	r14	;r3 As==01
    6fa6:	03 24       	jz	$+8      	;abs 0x6fae
    6fa8:	b0 12 58 4c 	call	#0x4c58	
    6fac:	14 3c       	jmp	$+42     	;abs 0x6fd6
    6fae:	a2 43 36 11 	mov	#2,	&0x1136	;r3 As==10
    6fb2:	d2 43 52 13 	mov.b	#1,	&0x1352	;r3 As==01
    6fb6:	82 4b d6 11 	mov	r11,	&0x11d6	
    6fba:	c2 43 6a 11 	mov.b	#0,	&0x116a	;r3 As==00
    6fbe:	b0 12 58 4c 	call	#0x4c58	
    6fc2:	7f 40 03 00 	mov.b	#3,	r15	;#0x0003
    6fc6:	b0 12 9c 6a 	call	#0x6a9c	
    6fca:	4f 93       	tst.b	r15		
    6fcc:	06 24       	jz	$+14     	;abs 0x6fda
    6fce:	7f 40 03 00 	mov.b	#3,	r15	;#0x0003
    6fd2:	b0 12 78 69 	call	#0x6978	
    6fd6:	4f 43       	clr.b	r15		
    6fd8:	05 3c       	jmp	$+12     	;abs 0x6fe4
    6fda:	b0 12 d6 5d 	call	#0x5dd6	
    6fde:	fb 3f       	jmp	$-8      	;abs 0x6fd6
    6fe0:	7f 40 05 00 	mov.b	#5,	r15	;#0x0005
    6fe4:	39 41       	pop	r9		
    6fe6:	3a 41       	pop	r10		
    6fe8:	3b 41       	pop	r11		
    6fea:	30 41       	ret			

00006fec <CC2420ActiveMessageP__AMSend__send>:
    6fec:	0b 12       	push	r11		
    6fee:	0a 12       	push	r10		
    6ff0:	09 12       	push	r9		
    6ff2:	0b 4d       	mov	r13,	r11	
    6ff4:	4a 4c       	mov.b	r12,	r10	
    6ff6:	7c 90 1d 00 	cmp.b	#29,	r12	;#0x001d
    6ffa:	4f 2c       	jc	$+160    	;abs 0x709a
    6ffc:	cd 4f 0b 00 	mov.b	r15,	11(r13)	;0x000b(r13)
    7000:	cd 4e 06 00 	mov.b	r14,	6(r13)	;0x0006(r13)
    7004:	8e 10       	swpb	r14		
    7006:	cd 4e 07 00 	mov.b	r14,	7(r13)	;0x0007(r13)
    700a:	b0 12 46 4c 	call	#0x4c46	
    700e:	19 42 d0 11 	mov	&0x11d0,r9	
    7012:	b0 12 58 4c 	call	#0x4c58	
    7016:	cb 49 04 00 	mov.b	r9,	4(r11)	;0x0004(r11)
    701a:	89 10       	swpb	r9		
    701c:	cb 49 05 00 	mov.b	r9,	5(r11)	;0x0005(r11)
    7020:	b0 12 46 4c 	call	#0x4c46	
    7024:	19 42 06 11 	mov	&0x1106,r9	
    7028:	b0 12 58 4c 	call	#0x4c58	
    702c:	cb 49 08 00 	mov.b	r9,	8(r11)	;0x0008(r11)
    7030:	89 10       	swpb	r9		
    7032:	cb 49 09 00 	mov.b	r9,	9(r11)	;0x0009(r11)
    7036:	5f 4b 01 00 	mov.b	1(r11),	r15	;0x0001(r11)
    703a:	3f d0 40 88 	bis	#-30656,r15	;#0x8840
    703e:	5e 4b 02 00 	mov.b	2(r11),	r14	;0x0002(r11)
    7042:	8e 10       	swpb	r14		
    7044:	0f de       	bis	r14,	r15	
    7046:	cb 4f 01 00 	mov.b	r15,	1(r11)	;0x0001(r11)
    704a:	8f 10       	swpb	r15		
    704c:	cb 4f 02 00 	mov.b	r15,	2(r11)	;0x0002(r11)
    7050:	4f 4a       	mov.b	r10,	r15	
    7052:	7f 50 0d 00 	add.b	#13,	r15	;#0x000d
    7056:	cb 4f 00 00 	mov.b	r15,	0(r11)	;0x0000(r11)
    705a:	c2 93 03 11 	tst.b	&0x1103	
    705e:	08 24       	jz	$+18     	;abs 0x7070
    7060:	c2 43 03 11 	mov.b	#0,	&0x1103	;r3 As==00
    7064:	0f 4b       	mov	r11,	r15	
    7066:	b0 12 be 6e 	call	#0x6ebe	
    706a:	4f 93       	tst.b	r15		
    706c:	0f 20       	jnz	$+32     	;abs 0x708c
    706e:	19 3c       	jmp	$+52     	;abs 0x70a2
    7070:	c2 4a fa 11 	mov.b	r10,	&0x11fa	
    7074:	c2 43 fb 11 	mov.b	#0,	&0x11fb	;r3 As==00
    7078:	82 4b 30 11 	mov	r11,	&0x1130	
    707c:	7f 40 18 00 	mov.b	#24,	r15	;#0x0018
    7080:	b0 12 36 4d 	call	#0x4d36	
    7084:	c2 93 03 11 	tst.b	&0x1103	
    7088:	0a 24       	jz	$+22     	;abs 0x709e
    708a:	03 3c       	jmp	$+8      	;abs 0x7092
    708c:	f2 43 03 11 	mov.b	#-1,	&0x1103	;r3 As==11
    7090:	08 3c       	jmp	$+18     	;abs 0x70a2
    7092:	c2 43 dc 11 	mov.b	#0,	&0x11dc	;r3 As==00
    7096:	4f 43       	clr.b	r15		
    7098:	04 3c       	jmp	$+10     	;abs 0x70a2
    709a:	6f 43       	mov.b	#2,	r15	;r3 As==10
    709c:	02 3c       	jmp	$+6      	;abs 0x70a2
    709e:	7f 40 09 00 	mov.b	#9,	r15	;#0x0009
    70a2:	39 41       	pop	r9		
    70a4:	3a 41       	pop	r10		
    70a6:	3b 41       	pop	r11		
    70a8:	30 41       	ret			

000070aa <AMQueueImplP__0__sendDone.isra.227>:
    70aa:	0b 12       	push	r11		
    70ac:	0a 12       	push	r10		
    70ae:	09 12       	push	r9		
    70b0:	08 12       	push	r8		
    70b2:	49 4f       	mov.b	r15,	r9	
    70b4:	08 4e       	mov	r14,	r8	
    70b6:	4d 4f       	mov.b	r15,	r13	
    70b8:	0d 5d       	rla	r13		
    70ba:	8d 43 00 12 	mov	#0,	4608(r13);r3 As==00, 0x1200(r13)
    70be:	c2 43 00 11 	mov.b	#0,	&0x1100	;r3 As==00
    70c2:	1d 42 00 12 	mov	&0x1200,r13	
    70c6:	0d 93       	tst	r13		
    70c8:	04 24       	jz	$+10     	;abs 0x70d2
    70ca:	5f 42 3a 13 	mov.b	&0x133a,r15	
    70ce:	1f f3       	and	#1,	r15	;r3 As==01
    70d0:	02 24       	jz	$+6      	;abs 0x70d6
    70d2:	d2 43 00 11 	mov.b	#1,	&0x1100	;r3 As==01
    70d6:	c2 93 00 11 	tst.b	&0x1100	
    70da:	14 20       	jnz	$+42     	;abs 0x7104
    70dc:	5b 4d 07 00 	mov.b	7(r13),	r11	;0x0007(r13)
    70e0:	8b 10       	swpb	r11		
    70e2:	5a 4d 06 00 	mov.b	6(r13),	r10	;0x0006(r13)
    70e6:	6c 4d       	mov.b	@r13,	r12	
    70e8:	7c 50 f3 ff 	add.b	#-13,	r12	;#0xfff3
    70ec:	0e 4b       	mov	r11,	r14	
    70ee:	0e da       	bis	r10,	r14	
    70f0:	5f 4d 0b 00 	mov.b	11(r13),r15	;0x000b(r13)
    70f4:	b0 12 ec 6f 	call	#0x6fec	
    70f8:	4f 93       	tst.b	r15		
    70fa:	04 24       	jz	$+10     	;abs 0x7104
    70fc:	7f 40 1a 00 	mov.b	#26,	r15	;#0x001a
    7100:	b0 12 36 4d 	call	#0x4d36	
    7104:	49 93       	tst.b	r9		
    7106:	05 20       	jnz	$+12     	;abs 0x7112
    7108:	38 90 92 12 	cmp	#4754,	r8	;#0x1292
    710c:	02 20       	jnz	$+6      	;abs 0x7112
    710e:	82 43 5e 11 	mov	#0,	&0x115e	;r3 As==00
    7112:	38 41       	pop	r8		
    7114:	39 41       	pop	r9		
    7116:	3a 41       	pop	r10		
    7118:	3b 41       	pop	r11		
    711a:	30 41       	ret			

0000711c <CC2420ActiveMessageP__AMSend__sendDone.isra.229>:
    711c:	c2 93 00 11 	tst.b	&0x1100	
    7120:	07 20       	jnz	$+16     	;abs 0x7130
    7122:	1e 42 00 12 	mov	&0x1200,r14	
    7126:	0e 9f       	cmp	r15,	r14	
    7128:	03 20       	jnz	$+8      	;abs 0x7130
    712a:	4f 43       	clr.b	r15		
    712c:	b0 12 aa 70 	call	#0x70aa	
    7130:	30 41       	ret			

00007132 <VirtualizeTimerC__0__fireTimers>:
    7132:	0b 12       	push	r11		
    7134:	0a 12       	push	r10		
    7136:	09 12       	push	r9		
    7138:	08 12       	push	r8		
    713a:	07 12       	push	r7		
    713c:	06 12       	push	r6		
    713e:	05 12       	push	r5		
    7140:	06 4e       	mov	r14,	r6	
    7142:	07 4f       	mov	r15,	r7	
    7144:	05 43       	clr	r5		
    7146:	0e 45       	mov	r5,	r14	
    7148:	0e 5e       	rla	r14		
    714a:	0f 4e       	mov	r14,	r15	
    714c:	0f 5f       	rla	r15		
    714e:	0f 5f       	rla	r15		
    7150:	0f 5e       	add	r14,	r15	
    7152:	3f 50 0c 12 	add	#4620,	r15	;#0x120c
    7156:	5e 4f 08 00 	mov.b	8(r15),	r14	;0x0008(r15)
    715a:	6e b3       	bit.b	#2,	r14	;r3 As==10
    715c:	02 20       	jnz	$+6      	;abs 0x7162
    715e:	30 40 88 73 	br	#0x7388	
    7162:	2a 4f       	mov	@r15,	r10	
    7164:	1b 4f 02 00 	mov	2(r15),	r11	;0x0002(r15)
    7168:	1c 4f 04 00 	mov	4(r15),	r12	;0x0004(r15)
    716c:	1d 4f 06 00 	mov	6(r15),	r13	;0x0006(r15)
    7170:	08 46       	mov	r6,	r8	
    7172:	09 47       	mov	r7,	r9	
    7174:	08 8a       	sub	r10,	r8	
    7176:	09 7b       	subc	r11,	r9	
    7178:	09 9d       	cmp	r13,	r9	
    717a:	02 2c       	jc	$+6      	;abs 0x7180
    717c:	30 40 88 73 	br	#0x7388	
    7180:	04 20       	jnz	$+10     	;abs 0x718a
    7182:	08 9c       	cmp	r12,	r8	
    7184:	02 2c       	jc	$+6      	;abs 0x718a
    7186:	30 40 88 73 	br	#0x7388	
    718a:	5e f3       	and.b	#1,	r14	;r3 As==01
    718c:	04 24       	jz	$+10     	;abs 0x7196
    718e:	ff f0 fd ff 08 00 	and.b	#-3,	8(r15)	;#0xfffd, 0x0008(r15)
    7194:	08 3c       	jmp	$+18     	;abs 0x71a6
    7196:	08 4c       	mov	r12,	r8	
    7198:	09 4d       	mov	r13,	r9	
    719a:	08 5a       	add	r10,	r8	
    719c:	09 6b       	addc	r11,	r9	
    719e:	8f 48 00 00 	mov	r8,	0(r15)	;0x0000(r15)
    71a2:	8f 49 02 00 	mov	r9,	2(r15)	;0x0002(r15)
    71a6:	75 90 07 00 	cmp.b	#7,	r5	;#0x0007
    71aa:	02 28       	jnc	$+6      	;abs 0x71b0
    71ac:	30 40 94 73 	br	#0x7394	
    71b0:	4f 45       	mov.b	r5,	r15	
    71b2:	0f 5f       	rla	r15		
    71b4:	10 4f be 9f 	br	-24642(r15)	;0x9fbe(r15)
    71b8:	b0 12 46 4c 	call	#0x4c46	
    71bc:	5e 42 31 00 	mov.b	&0x0031,r14	
    71c0:	7e e0 10 00 	xor.b	#16,	r14	;#0x0010
    71c4:	16 3c       	jmp	$+46     	;abs 0x71f2
    71c6:	4f 43       	clr.b	r15		
    71c8:	b0 12 8c 5c 	call	#0x5c8c	
    71cc:	5f 43       	mov.b	#1,	r15	;r3 As==01
    71ce:	b0 12 8c 5c 	call	#0x5c8c	
    71d2:	4f 43       	clr.b	r15		
    71d4:	b0 12 ae 5d 	call	#0x5dae	
    71d8:	5f 43       	mov.b	#1,	r15	;r3 As==01
    71da:	b0 12 ae 5d 	call	#0x5dae	
    71de:	3f 40 7e 9f 	mov	#-24706,r15	;#0x9f7e
    71e2:	b0 12 60 9d 	call	#0x9d60	
    71e6:	b0 12 46 4c 	call	#0x4c46	
    71ea:	5e 42 31 00 	mov.b	&0x0031,r14	
    71ee:	7e e0 20 00 	xor.b	#32,	r14	;#0x0020
    71f2:	c2 4e 31 00 	mov.b	r14,	&0x0031	
    71f6:	6c 3c       	jmp	$+218    	;abs 0x72d0
    71f8:	82 93 5e 11 	tst	&0x115e	
    71fc:	30 20       	jnz	$+98     	;abs 0x725e
    71fe:	b2 40 9e 12 90 11 	mov	#4766,	&0x1190	;#0x129e
    7204:	3a 40 9e 12 	mov	#4766,	r10	;#0x129e
    7208:	3d 40 07 00 	mov	#7,	r13	;#0x0007
    720c:	3e 40 95 9f 	mov	#-24683,r14	;#0x9f95
    7210:	0f 4a       	mov	r10,	r15	
    7212:	b0 12 a8 93 	call	#0x93a8	
    7216:	fa 43 fa ff 	mov.b	#-1,	-6(r10)	;r3 As==11, 0xfffa(r10)
    721a:	fa 43 fb ff 	mov.b	#-1,	-5(r10)	;r3 As==11, 0xfffb(r10)
    721e:	fa 40 88 ff ff ff 	mov.b	#-120,	-1(r10)	;#0xff88, 0xffff(r10)
    7224:	82 93 00 12 	tst	&0x1200	
    7228:	1a 20       	jnz	$+54     	;abs 0x725e
    722a:	b2 40 92 12 00 12 	mov	#4754,	&0x1200	;#0x1292
    7230:	f2 40 21 00 92 12 	mov.b	#33,	&0x1292	;#0x0021
    7236:	c2 93 00 11 	tst.b	&0x1100	
    723a:	b7 24       	jz	$+368    	;abs 0x73aa
    723c:	c2 43 00 11 	mov.b	#0,	&0x1100	;r3 As==00
    7240:	7c 40 14 00 	mov.b	#20,	r12	;#0x0014
    7244:	3d 40 92 12 	mov	#4754,	r13	;#0x1292
    7248:	3e 43       	mov	#-1,	r14	;r3 As==11
    724a:	7f 40 88 ff 	mov.b	#-120,	r15	;#0xff88
    724e:	b0 12 ec 6f 	call	#0x6fec	
    7252:	4f 93       	tst.b	r15		
    7254:	aa 24       	jz	$+342    	;abs 0x73aa
    7256:	d2 43 00 11 	mov.b	#1,	&0x1100	;r3 As==01
    725a:	82 43 00 12 	mov	#0,	&0x1200	;r3 As==00
    725e:	3f 40 9d 9f 	mov	#-24675,r15	;#0x9f9d
    7262:	b0 12 60 9d 	call	#0x9d60	
    7266:	b0 12 46 4c 	call	#0x4c46	
    726a:	5e 42 31 00 	mov.b	&0x0031,r14	
    726e:	7e e0 40 00 	xor.b	#64,	r14	;#0x0040
    7272:	bf 3f       	jmp	$-128    	;abs 0x71f2
    7274:	b0 12 46 4c 	call	#0x4c46	
    7278:	5e 42 54 11 	mov.b	&0x1154,r14	
    727c:	4e 93       	tst.b	r14		
    727e:	08 24       	jz	$+18     	;abs 0x7290
    7280:	e2 93 13 11 	cmp.b	#2,	&0x1113	;r3 As==10
    7284:	07 20       	jnz	$+16     	;abs 0x7294
    7286:	7e 53       	add.b	#-1,	r14	;r3 As==11
    7288:	1a 43       	mov	#1,	r10	;r3 As==01
    728a:	6e 93       	cmp.b	#2,	r14	;r3 As==10
    728c:	04 28       	jnc	$+10     	;abs 0x7296
    728e:	02 3c       	jmp	$+6      	;abs 0x7294
    7290:	1a 43       	mov	#1,	r10	;r3 As==01
    7292:	01 3c       	jmp	$+4      	;abs 0x7296
    7294:	0a 43       	clr	r10		
    7296:	b0 12 58 4c 	call	#0x4c58	
    729a:	4a 93       	tst.b	r10		
    729c:	7b 24       	jz	$+248    	;abs 0x7394
    729e:	b0 12 46 4c 	call	#0x4c46	
    72a2:	4a 4f       	mov.b	r15,	r10	
    72a4:	e2 93 13 11 	cmp.b	#2,	&0x1113	;r3 As==10
    72a8:	12 20       	jnz	$+38     	;abs 0x72ce
    72aa:	5e 42 54 11 	mov.b	&0x1154,r14	
    72ae:	5e 93       	cmp.b	#1,	r14	;r3 As==01
    72b0:	05 20       	jnz	$+12     	;abs 0x72bc
    72b2:	7f 40 06 00 	mov.b	#6,	r15	;#0x0006
    72b6:	b0 12 36 4d 	call	#0x4d36	
    72ba:	09 3c       	jmp	$+20     	;abs 0x72ce
    72bc:	6e 93       	cmp.b	#2,	r14	;r3 As==10
    72be:	07 20       	jnz	$+16     	;abs 0x72ce
    72c0:	d2 42 d2 11 13 11 	mov.b	&0x11d2,&0x1113	
    72c6:	f2 40 03 00 54 11 	mov.b	#3,	&0x1154	;#0x0003
    72cc:	01 3c       	jmp	$+4      	;abs 0x72d0
    72ce:	4f 4a       	mov.b	r10,	r15	
    72d0:	b0 12 58 4c 	call	#0x4c58	
    72d4:	5f 3c       	jmp	$+192    	;abs 0x7394
    72d6:	1f 42 6c 11 	mov	&0x116c,r15	
    72da:	3f 90 05 00 	cmp	#5,	r15	;#0x0005
    72de:	13 24       	jz	$+40     	;abs 0x7306
    72e0:	3f 90 1e 00 	cmp	#30,	r15	;#0x001e
    72e4:	04 24       	jz	$+10     	;abs 0x72ee
    72e6:	3f 90 03 00 	cmp	#3,	r15	;#0x0003
    72ea:	54 20       	jnz	$+170    	;abs 0x7394
    72ec:	03 3c       	jmp	$+8      	;abs 0x72f4
    72ee:	c2 43 5a 11 	mov.b	#0,	&0x115a	;r3 As==00
    72f2:	50 3c       	jmp	$+162    	;abs 0x7394
    72f4:	c2 43 5a 11 	mov.b	#0,	&0x115a	;r3 As==00
    72f8:	0d 43       	clr	r13		
    72fa:	5e 43       	mov.b	#1,	r14	;r3 As==01
    72fc:	5f 42 4c 13 	mov.b	&0x134c,r15	
    7300:	b0 12 de 5e 	call	#0x5ede	
    7304:	47 3c       	jmp	$+144    	;abs 0x7394
    7306:	c2 43 5a 11 	mov.b	#0,	&0x115a	;r3 As==00
    730a:	0d 43       	clr	r13		
    730c:	5e 43       	mov.b	#1,	r14	;r3 As==01
    730e:	5f 42 4c 13 	mov.b	&0x134c,r15	
    7312:	b0 12 08 5f 	call	#0x5f08	
    7316:	3e 3c       	jmp	$+126    	;abs 0x7394
    7318:	1f 42 cc 12 	mov	&0x12cc,r15	
    731c:	3f 90 03 00 	cmp	#3,	r15	;#0x0003
    7320:	03 24       	jz	$+8      	;abs 0x7328
    7322:	2f 92       	cmp	#4,	r15	;r2 As==10
    7324:	37 20       	jnz	$+112    	;abs 0x7394
    7326:	03 3c       	jmp	$+8      	;abs 0x732e
    7328:	92 43 cc 12 	mov	#1,	&0x12cc	;r3 As==01
    732c:	02 3c       	jmp	$+6      	;abs 0x7332
    732e:	a2 43 cc 12 	mov	#2,	&0x12cc	;r3 As==10
    7332:	5f 42 11 11 	mov.b	&0x1111,r15	
    7336:	7f 93       	cmp.b	#-1,	r15	;r3 As==11
    7338:	2d 24       	jz	$+92     	;abs 0x7394
    733a:	b0 12 58 62 	call	#0x6258	
    733e:	2a 3c       	jmp	$+86     	;abs 0x7394
    7340:	1f 42 cc 12 	mov	&0x12cc,r15	
    7344:	3f 90 05 00 	cmp	#5,	r15	;#0x0005
    7348:	04 24       	jz	$+10     	;abs 0x7352
    734a:	3f 90 06 00 	cmp	#6,	r15	;#0x0006
    734e:	22 20       	jnz	$+70     	;abs 0x7394
    7350:	07 3c       	jmp	$+16     	;abs 0x7360
    7352:	b0 12 e4 62 	call	#0x62e4	
    7356:	4f 93       	tst.b	r15		
    7358:	0f 20       	jnz	$+32     	;abs 0x7378
    735a:	82 43 cc 12 	mov	#0,	&0x12cc	;r3 As==00
    735e:	1a 3c       	jmp	$+54     	;abs 0x7394
    7360:	b0 12 e4 62 	call	#0x62e4	
    7364:	4f 93       	tst.b	r15		
    7366:	08 20       	jnz	$+18     	;abs 0x7378
    7368:	82 43 cc 12 	mov	#0,	&0x12cc	;r3 As==00
    736c:	3d 40 00 08 	mov	#2048,	r13	;#0x0800
    7370:	0e 43       	clr	r14		
    7372:	7f 40 07 00 	mov.b	#7,	r15	;#0x0007
    7376:	05 3c       	jmp	$+12     	;abs 0x7382
    7378:	3d 40 14 00 	mov	#20,	r13	;#0x0014
    737c:	0e 43       	clr	r14		
    737e:	7f 40 06 00 	mov.b	#6,	r15	;#0x0006
    7382:	b0 12 f0 54 	call	#0x54f0	
    7386:	06 3c       	jmp	$+14     	;abs 0x7394
    7388:	15 53       	inc	r5		
    738a:	35 90 09 00 	cmp	#9,	r5	;#0x0009
    738e:	02 24       	jz	$+6      	;abs 0x7394
    7390:	30 40 46 71 	br	#0x7146	
    7394:	6f 43       	mov.b	#2,	r15	;r3 As==10
    7396:	b0 12 36 4d 	call	#0x4d36	
    739a:	35 41       	pop	r5		
    739c:	36 41       	pop	r6		
    739e:	37 41       	pop	r7		
    73a0:	38 41       	pop	r8		
    73a2:	39 41       	pop	r9		
    73a4:	3a 41       	pop	r10		
    73a6:	3b 41       	pop	r11		
    73a8:	30 41       	ret			
    73aa:	92 43 5e 11 	mov	#1,	&0x115e	;r3 As==01
    73ae:	5b 3f       	jmp	$-328    	;abs 0x7266

000073b0 <SchedulerBasicP__TaskBasic__runTask>:
    73b0:	0b 12       	push	r11		
    73b2:	0a 12       	push	r10		
    73b4:	09 12       	push	r9		
    73b6:	08 12       	push	r8		
    73b8:	07 12       	push	r7		
    73ba:	06 12       	push	r6		
    73bc:	31 50 f6 ff 	add	#-10,	r1	;#0xfff6
    73c0:	7f 90 1b 00 	cmp.b	#27,	r15	;#0x001b
    73c4:	02 28       	jnc	$+6      	;abs 0x73ca
    73c6:	30 40 8e 7d 	br	#0x7d8e	
    73ca:	4f 4f       	mov.b	r15,	r15	
    73cc:	0f 5f       	rla	r15		
    73ce:	10 4f e6 9f 	br	-24602(r15)	;0x9fe6(r15)
    73d2:	b0 12 46 4c 	call	#0x4c46	
    73d6:	d2 42 90 12 20 11 	mov.b	&0x1290,&0x1120	
    73dc:	f2 40 03 00 5c 11 	mov.b	#3,	&0x115c	;#0x0003
    73e2:	b0 12 58 4c 	call	#0x4c58	
    73e6:	c2 93 20 11 	tst.b	&0x1120	
    73ea:	02 24       	jz	$+6      	;abs 0x73f0
    73ec:	30 40 8e 7d 	br	#0x7d8e	
    73f0:	b0 12 56 68 	call	#0x6856	
    73f4:	30 40 8e 7d 	br	#0x7d8e	
    73f8:	c2 93 b2 11 	tst.b	&0x11b2	
    73fc:	28 20       	jnz	$+82     	;abs 0x744e
    73fe:	1a 42 ce 12 	mov	&0x12ce,r10	
    7402:	1b 42 d0 12 	mov	&0x12d0,r11	
    7406:	b0 12 46 4c 	call	#0x4c46	
    740a:	18 42 e4 11 	mov	&0x11e4,r8	
    740e:	19 42 e6 11 	mov	&0x11e6,r9	
    7412:	18 52 ea 11 	add	&0x11ea,r8	
    7416:	19 62 ec 11 	addc	&0x11ec,r9	
    741a:	b0 12 58 4c 	call	#0x4c58	
    741e:	82 4a ce 12 	mov	r10,	&0x12ce	
    7422:	82 4b d0 12 	mov	r11,	&0x12d0	
    7426:	c2 43 b2 11 	mov.b	#0,	&0x11b2	;r3 As==00
    742a:	b0 12 46 4c 	call	#0x4c46	
    742e:	82 48 ea 11 	mov	r8,	&0x11ea	
    7432:	82 49 ec 11 	mov	r9,	&0x11ec	
    7436:	82 4a e4 11 	mov	r10,	&0x11e4	
    743a:	82 4b e6 11 	mov	r11,	&0x11e6	
    743e:	81 4f 08 00 	mov	r15,	8(r1)	;0x0008(r1)
    7442:	b0 12 fa 53 	call	#0x53fa	
    7446:	1f 41 08 00 	mov	8(r1),	r15	;0x0008(r1)
    744a:	b0 12 58 4c 	call	#0x4c58	
    744e:	b0 12 5e 52 	call	#0x525e	
    7452:	3a 3c       	jmp	$+118    	;abs 0x74c8
    7454:	b0 12 5e 52 	call	#0x525e	
    7458:	08 4e       	mov	r14,	r8	
    745a:	09 4f       	mov	r15,	r9	
    745c:	b2 f0 ef ff 82 01 	and	#-17,	&0x0182	;#0xffef
    7462:	46 43       	clr.b	r6		
    7464:	3a 43       	mov	#-1,	r10	;r3 As==11
    7466:	3b 40 ff 7f 	mov	#32767,	r11	;#0x7fff
    746a:	07 43       	clr	r7		
    746c:	0e 47       	mov	r7,	r14	
    746e:	0e 5e       	rla	r14		
    7470:	0f 4e       	mov	r14,	r15	
    7472:	0f 5f       	rla	r15		
    7474:	0f 5f       	rla	r15		
    7476:	0f 5e       	add	r14,	r15	
    7478:	3f 50 0c 12 	add	#4620,	r15	;#0x120c
    747c:	ef b3 08 00 	bit.b	#2,	8(r15)	;r3 As==10, 0x0008(r15)
    7480:	13 24       	jz	$+40     	;abs 0x74a8
    7482:	0c 48       	mov	r8,	r12	
    7484:	0d 49       	mov	r9,	r13	
    7486:	2c 8f       	sub	@r15,	r12	
    7488:	1d 7f 02 00 	subc	2(r15),	r13	;0x0002(r15)
    748c:	1e 4f 04 00 	mov	4(r15),	r14	;0x0004(r15)
    7490:	1f 4f 06 00 	mov	6(r15),	r15	;0x0006(r15)
    7494:	0e 8c       	sub	r12,	r14	
    7496:	0f 7d       	subc	r13,	r15	
    7498:	0f 9b       	cmp	r11,	r15	
    749a:	03 38       	jl	$+8      	;abs 0x74a2
    749c:	05 20       	jnz	$+12     	;abs 0x74a8
    749e:	0e 9a       	cmp	r10,	r14	
    74a0:	03 2c       	jc	$+8      	;abs 0x74a8
    74a2:	0a 4e       	mov	r14,	r10	
    74a4:	0b 4f       	mov	r15,	r11	
    74a6:	56 43       	mov.b	#1,	r6	;r3 As==01
    74a8:	17 53       	inc	r7		
    74aa:	37 90 09 00 	cmp	#9,	r7	;#0x0009
    74ae:	de 23       	jnz	$-66     	;abs 0x746c
    74b0:	46 93       	tst.b	r6		
    74b2:	02 20       	jnz	$+6      	;abs 0x74b8
    74b4:	30 40 8e 7d 	br	#0x7d8e	
    74b8:	0b 93       	tst	r11		
    74ba:	04 38       	jl	$+10     	;abs 0x74c4
    74bc:	1b 93       	cmp	#1,	r11	;r3 As==01
    74be:	08 34       	jge	$+18     	;abs 0x74d0
    74c0:	1a 93       	cmp	#1,	r10	;r3 As==01
    74c2:	06 2c       	jc	$+14     	;abs 0x74d0
    74c4:	0e 48       	mov	r8,	r14	
    74c6:	0f 49       	mov	r9,	r15	
    74c8:	b0 12 32 71 	call	#0x7132	
    74cc:	30 40 8e 7d 	br	#0x7d8e	
    74d0:	82 4a ce 12 	mov	r10,	&0x12ce	
    74d4:	82 4b d0 12 	mov	r11,	&0x12d0	
    74d8:	d2 43 b2 11 	mov.b	#1,	&0x11b2	;r3 As==01
    74dc:	b0 12 46 4c 	call	#0x4c46	
    74e0:	82 48 ea 11 	mov	r8,	&0x11ea	
    74e4:	82 49 ec 11 	mov	r9,	&0x11ec	
    74e8:	82 4a e4 11 	mov	r10,	&0x11e4	
    74ec:	82 4b e6 11 	mov	r11,	&0x11e6	
    74f0:	81 4f 08 00 	mov	r15,	8(r1)	;0x0008(r1)
    74f4:	b0 12 fa 53 	call	#0x53fa	
    74f8:	30 40 98 7a 	br	#0x7a98	
    74fc:	c2 93 5a 11 	tst.b	&0x115a	
    7500:	02 20       	jnz	$+6      	;abs 0x7506
    7502:	30 40 8e 7d 	br	#0x7d8e	
    7506:	f2 f0 fd ff 3c 12 	and.b	#-3,	&0x123c	;#0xfffd
    750c:	b0 12 ec 63 	call	#0x63ec	
    7510:	4a 4f       	mov.b	r15,	r10	
    7512:	8a 10       	swpb	r10		
    7514:	b0 12 ec 63 	call	#0x63ec	
    7518:	4f 4f       	mov.b	r15,	r15	
    751a:	0a df       	bis	r15,	r10	
    751c:	b0 12 ec 63 	call	#0x63ec	
    7520:	b0 12 ac 63 	call	#0x63ac	
    7524:	b0 12 dc 63 	call	#0x63dc	
    7528:	b0 12 8c 63 	call	#0x638c	
    752c:	b0 12 9c 63 	call	#0x639c	
    7530:	1f 42 6c 11 	mov	&0x116c,r15	
    7534:	3f 90 03 00 	cmp	#3,	r15	;#0x0003
    7538:	06 24       	jz	$+14     	;abs 0x7546
    753a:	3f 90 05 00 	cmp	#5,	r15	;#0x0005
    753e:	02 24       	jz	$+6      	;abs 0x7544
    7540:	30 40 8e 7d 	br	#0x7d8e	
    7544:	0a 3c       	jmp	$+22     	;abs 0x755a
    7546:	c2 43 5a 11 	mov.b	#0,	&0x115a	;r3 As==00
    754a:	0d 4a       	mov	r10,	r13	
    754c:	4e 43       	clr.b	r14		
    754e:	5f 42 4c 13 	mov.b	&0x134c,r15	
    7552:	b0 12 de 5e 	call	#0x5ede	
    7556:	30 40 8e 7d 	br	#0x7d8e	
    755a:	c2 43 5a 11 	mov.b	#0,	&0x115a	;r3 As==00
    755e:	0d 4a       	mov	r10,	r13	
    7560:	4e 43       	clr.b	r14		
    7562:	5f 42 4c 13 	mov.b	&0x134c,r15	
    7566:	b0 12 08 5f 	call	#0x5f08	
    756a:	30 40 8e 7d 	br	#0x7d8e	
    756e:	1f 42 6c 11 	mov	&0x116c,r15	
    7572:	3f 90 06 00 	cmp	#6,	r15	;#0x0006
    7576:	09 24       	jz	$+20     	;abs 0x758a
    7578:	3f 90 07 00 	cmp	#7,	r15	;#0x0007
    757c:	02 24       	jz	$+6      	;abs 0x7582
    757e:	30 40 8e 7d 	br	#0x7d8e	
    7582:	c2 43 5a 11 	mov.b	#0,	&0x115a	;r3 As==00
    7586:	30 40 8e 7d 	br	#0x7d8e	
    758a:	c2 43 5a 11 	mov.b	#0,	&0x115a	;r3 As==00
    758e:	c2 43 56 11 	mov.b	#0,	&0x1156	;r3 As==00
    7592:	30 40 8e 7d 	br	#0x7d8e	
    7596:	d2 93 50 11 	cmp.b	#1,	&0x1150	;r3 As==01
    759a:	02 20       	jnz	$+6      	;abs 0x75a0
    759c:	b0 12 7e 64 	call	#0x647e	
    75a0:	b0 12 46 4c 	call	#0x4c46	
    75a4:	c2 43 50 11 	mov.b	#0,	&0x1150	;r3 As==00
    75a8:	c2 43 52 11 	mov.b	#0,	&0x1152	;r3 As==00
    75ac:	b0 12 58 4c 	call	#0x4c58	
    75b0:	30 40 8e 7d 	br	#0x7d8e	
    75b4:	b0 12 46 4c 	call	#0x4c46	
    75b8:	d2 42 d2 11 13 11 	mov.b	&0x11d2,&0x1113	
    75be:	f2 40 03 00 54 11 	mov.b	#3,	&0x1154	;#0x0003
    75c4:	b0 12 58 4c 	call	#0x4c58	
    75c8:	5f 42 13 11 	mov.b	&0x1113,r15	
    75cc:	4f 93       	tst.b	r15		
    75ce:	05 24       	jz	$+12     	;abs 0x75da
    75d0:	5f 93       	cmp.b	#1,	r15	;r3 As==01
    75d2:	02 24       	jz	$+6      	;abs 0x75d8
    75d4:	30 40 8e 7d 	br	#0x7d8e	
    75d8:	19 3c       	jmp	$+52     	;abs 0x760c
    75da:	c2 93 16 11 	tst.b	&0x1116	
    75de:	10 24       	jz	$+34     	;abs 0x7600
    75e0:	c2 93 5a 11 	tst.b	&0x115a	
    75e4:	0d 20       	jnz	$+28     	;abs 0x7600
    75e6:	d2 43 5a 11 	mov.b	#1,	&0x115a	;r3 As==01
    75ea:	b2 40 03 00 6c 11 	mov	#3,	&0x116c	;#0x0003
    75f0:	c2 43 4c 13 	mov.b	#0,	&0x134c	;r3 As==00
    75f4:	b0 12 d6 64 	call	#0x64d6	
    75f8:	4f 93       	tst.b	r15		
    75fa:	02 20       	jnz	$+6      	;abs 0x7600
    75fc:	30 40 8e 7d 	br	#0x7d8e	
    7600:	4f 43       	clr.b	r15		
    7602:	b0 12 68 5e 	call	#0x5e68	
    7606:	3f 40 32 9f 	mov	#-24782,r15	;#0x9f32
    760a:	18 3c       	jmp	$+50     	;abs 0x763c
    760c:	c2 93 16 11 	tst.b	&0x1116	
    7610:	10 24       	jz	$+34     	;abs 0x7632
    7612:	c2 93 5a 11 	tst.b	&0x115a	
    7616:	0d 20       	jnz	$+28     	;abs 0x7632
    7618:	d2 43 5a 11 	mov.b	#1,	&0x115a	;r3 As==01
    761c:	b2 40 05 00 6c 11 	mov	#5,	&0x116c	;#0x0005
    7622:	d2 43 4c 13 	mov.b	#1,	&0x134c	;r3 As==01
    7626:	b0 12 d6 64 	call	#0x64d6	
    762a:	4f 93       	tst.b	r15		
    762c:	02 20       	jnz	$+6      	;abs 0x7632
    762e:	30 40 8e 7d 	br	#0x7d8e	
    7632:	5f 43       	mov.b	#1,	r15	;r3 As==01
    7634:	b0 12 68 5e 	call	#0x5e68	
    7638:	3f 40 4f 9f 	mov	#-24753,r15	;#0x9f4f
    763c:	b0 12 60 9d 	call	#0x9d60	
    7640:	30 40 8e 7d 	br	#0x7d8e	
    7644:	b0 12 7e 64 	call	#0x647e	
    7648:	30 40 8e 7d 	br	#0x7d8e	
    764c:	b0 12 46 4c 	call	#0x4c46	
    7650:	f2 f0 bf ff 22 00 	and.b	#-65,	&0x0022	;#0xffbf
    7656:	b0 12 58 4c 	call	#0x4c58	
    765a:	b0 12 9c 63 	call	#0x639c	
    765e:	b0 12 cc 63 	call	#0x63cc	
    7662:	b0 12 bc 63 	call	#0x63bc	
    7666:	b0 12 46 4c 	call	#0x4c46	
    766a:	f2 f0 7f 00 21 00 	and.b	#127,	&0x0021	;#0x007f
    7670:	b0 12 58 4c 	call	#0x4c58	
    7674:	7f 40 05 00 	mov.b	#5,	r15	;#0x0005
    7678:	43 3c       	jmp	$+136    	;abs 0x7700
    767a:	5f 42 79 12 	mov.b	&0x1279,r15	
    767e:	b0 12 02 62 	call	#0x6202	
    7682:	1d 42 40 13 	mov	&0x1340,r13	
    7686:	4e 43       	clr.b	r14		
    7688:	5f 42 79 12 	mov.b	&0x1279,r15	
    768c:	b0 12 32 4b 	call	#0x4b32	
    7690:	30 40 8e 7d 	br	#0x7d8e	
    7694:	b0 12 46 4c 	call	#0x4c46	
    7698:	e2 43 4c 11 	mov.b	#2,	&0x114c	;r3 As==10
    769c:	b0 12 58 4c 	call	#0x4c58	
    76a0:	f2 90 05 00 12 11 	cmp.b	#5,	&0x1112	;#0x0005
    76a6:	02 28       	jnc	$+6      	;abs 0x76ac
    76a8:	30 40 8e 7d 	br	#0x7d8e	
    76ac:	5f 42 12 11 	mov.b	&0x1112,r15	
    76b0:	0f 5f       	rla	r15		
    76b2:	10 4f 1c a0 	br	-24548(r15)	;0xa01c(r15)
    76b6:	4f 43       	clr.b	r15		
    76b8:	01 3c       	jmp	$+4      	;abs 0x76bc
    76ba:	5f 43       	mov.b	#1,	r15	;r3 As==01
    76bc:	b0 12 4c 67 	call	#0x674c	
    76c0:	30 40 8e 7d 	br	#0x7d8e	
    76c4:	6f 43       	mov.b	#2,	r15	;r3 As==10
    76c6:	fa 3f       	jmp	$-10     	;abs 0x76bc
    76c8:	7f 40 03 00 	mov.b	#3,	r15	;#0x0003
    76cc:	f7 3f       	jmp	$-16     	;abs 0x76bc
    76ce:	6f 42       	mov.b	#4,	r15	;r2 As==10
    76d0:	f5 3f       	jmp	$-20     	;abs 0x76bc
    76d2:	f2 93 11 11 	cmp.b	#-1,	&0x1111	;r3 As==11
    76d6:	02 20       	jnz	$+6      	;abs 0x76dc
    76d8:	30 40 8e 7d 	br	#0x7d8e	
    76dc:	c2 93 c9 12 	tst.b	&0x12c9	
    76e0:	03 24       	jz	$+8      	;abs 0x76e8
    76e2:	3f 40 06 00 	mov	#6,	r15	;#0x0006
    76e6:	02 3c       	jmp	$+6      	;abs 0x76ec
    76e8:	3f 40 05 00 	mov	#5,	r15	;#0x0005
    76ec:	b0 12 26 63 	call	#0x6326	
    76f0:	4f 93       	tst.b	r15		
    76f2:	04 20       	jnz	$+10     	;abs 0x76fc
    76f4:	f2 43 11 11 	mov.b	#-1,	&0x1111	;r3 As==11
    76f8:	30 40 8e 7d 	br	#0x7d8e	
    76fc:	7f 40 0b 00 	mov.b	#11,	r15	;#0x000b
    7700:	b0 12 36 4d 	call	#0x4d36	
    7704:	30 40 8e 7d 	br	#0x7d8e	
    7708:	5b 42 10 11 	mov.b	&0x1110,r11	
    770c:	b0 12 46 4c 	call	#0x4c46	
    7710:	4e 4b       	mov.b	r11,	r14	
    7712:	0e 5e       	rla	r14		
    7714:	0d 4e       	mov	r14,	r13	
    7716:	3d 50 88 11 	add	#4488,	r13	;#0x1188
    771a:	8d 43 00 00 	mov	#0,	0(r13)	;r3 As==00, 0x0000(r13)
    771e:	8e 4d 2a 13 	mov	r13,	4906(r14);0x132a(r14)
    7722:	b0 12 58 4c 	call	#0x4c58	
    7726:	e2 43 10 11 	mov.b	#2,	&0x1110	;r3 As==10
    772a:	4f 4b       	mov.b	r11,	r15	
    772c:	21 3c       	jmp	$+68     	;abs 0x7770
    772e:	5a 42 10 11 	mov.b	&0x1110,r10	
    7732:	b0 12 46 4c 	call	#0x4c46	
    7736:	48 4a       	mov.b	r10,	r8	
    7738:	0d 48       	mov	r8,	r13	
    773a:	0d 5d       	rla	r13		
    773c:	1b 4d 88 11 	mov	4488(r13),r11	;0x1188(r13)
    7740:	b0 12 58 4c 	call	#0x4c58	
    7744:	02 3c       	jmp	$+6      	;abs 0x774a
    7746:	1b 4b 02 00 	mov	2(r11),	r11	;0x0002(r11)
    774a:	0b 93       	tst	r11		
    774c:	fc 23       	jnz	$-6      	;abs 0x7746
    774e:	b0 12 46 4c 	call	#0x4c46	
    7752:	0e 48       	mov	r8,	r14	
    7754:	0e 5e       	rla	r14		
    7756:	8e 43 88 11 	mov	#0,	4488(r14);r3 As==00, 0x1188(r14)
    775a:	4d 4a       	mov.b	r10,	r13	
    775c:	0d 5d       	rla	r13		
    775e:	3d 50 88 11 	add	#4488,	r13	;#0x1188
    7762:	8e 4d 2a 13 	mov	r13,	4906(r14);0x132a(r14)
    7766:	b0 12 58 4c 	call	#0x4c58	
    776a:	e2 43 10 11 	mov.b	#2,	&0x1110	;r3 As==10
    776e:	4f 4a       	mov.b	r10,	r15	
    7770:	b0 12 c8 62 	call	#0x62c8	
    7774:	30 40 8e 7d 	br	#0x7d8e	
    7778:	b0 12 46 4c 	call	#0x4c46	
    777c:	82 43 de 11 	mov	#0,	&0x11de	;r3 As==00
    7780:	15 3f       	jmp	$-468    	;abs 0x75ac
    7782:	b0 12 46 4c 	call	#0x4c46	
    7786:	4b 4f       	mov.b	r15,	r11	
    7788:	5f 43       	mov.b	#1,	r15	;r3 As==01
    778a:	b0 12 7a 46 	call	#0x467a	
    778e:	92 43 36 11 	mov	#1,	&0x1136	;r3 As==01
    7792:	c2 43 34 11 	mov.b	#0,	&0x1134	;r3 As==00
    7796:	c2 43 8e 11 	mov.b	#0,	&0x118e	;r3 As==00
    779a:	c2 43 b3 11 	mov.b	#0,	&0x11b3	;r3 As==00
    779e:	4f 4b       	mov.b	r11,	r15	
    77a0:	b0 12 58 4c 	call	#0x4c58	
    77a4:	b0 12 46 4c 	call	#0x4c46	
    77a8:	81 4f 08 00 	mov	r15,	8(r1)	;0x0008(r1)
    77ac:	b0 12 1a 47 	call	#0x471a	
    77b0:	92 43 ae 11 	mov	#1,	&0x11ae	;r3 As==01
    77b4:	c2 43 ca 11 	mov.b	#0,	&0x11ca	;r3 As==00
    77b8:	f2 f0 fe ff 25 00 	and.b	#-2,	&0x0025	;#0xfffe
    77be:	f2 f0 fe ff 23 00 	and.b	#-2,	&0x0023	;#0xfffe
    77c4:	d2 d3 24 00 	bis.b	#1,	&0x0024	;r3 As==01
    77c8:	d2 d3 25 00 	bis.b	#1,	&0x0025	;r3 As==01
    77cc:	1f 41 08 00 	mov	8(r1),	r15	;0x0008(r1)
    77d0:	b0 12 58 4c 	call	#0x4c58	
    77d4:	b0 12 46 4c 	call	#0x4c46	
    77d8:	4b 4f       	mov.b	r15,	r11	
    77da:	a2 92 48 11 	cmp	#4,	&0x1148	;r2 As==10
    77de:	05 20       	jnz	$+12     	;abs 0x77ea
    77e0:	7f 40 03 00 	mov.b	#3,	r15	;#0x0003
    77e4:	b0 12 f6 4c 	call	#0x4cf6	
    77e8:	4f 4b       	mov.b	r11,	r15	
    77ea:	b0 12 58 4c 	call	#0x4c58	
    77ee:	b0 12 46 4c 	call	#0x4c46	
    77f2:	4b 4f       	mov.b	r15,	r11	
    77f4:	b0 12 50 4f 	call	#0x4f50	
    77f8:	4f 43       	clr.b	r15		
    77fa:	b0 12 5e 4f 	call	#0x4f5e	
    77fe:	4f 4b       	mov.b	r11,	r15	
    7800:	b0 12 58 4c 	call	#0x4c58	
    7804:	6f 43       	mov.b	#2,	r15	;r3 As==10
    7806:	b0 12 c2 5d 	call	#0x5dc2	
    780a:	30 40 8e 7d 	br	#0x7d8e	
    780e:	4f 43       	clr.b	r15		
    7810:	b0 12 c2 5d 	call	#0x5dc2	
    7814:	30 12 cc 9f 	push	#-24628	;#0x9fcc
    7818:	b0 12 0c 95 	call	#0x950c	
    781c:	21 53       	incd	r1		
    781e:	30 40 8e 7d 	br	#0x7d8e	
    7822:	b0 12 46 4c 	call	#0x4c46	
    7826:	b0 12 58 4c 	call	#0x4c58	
    782a:	b0 12 46 4c 	call	#0x4c46	
    782e:	5b 42 75 12 	mov.b	&0x1275,r11	
    7832:	b0 12 58 4c 	call	#0x4c58	
    7836:	7b 90 03 00 	cmp.b	#3,	r11	;#0x0003
    783a:	3d 20       	jnz	$+124    	;abs 0x78b6
    783c:	b0 12 46 4c 	call	#0x4c46	
    7840:	4b 4f       	mov.b	r15,	r11	
    7842:	82 43 36 11 	mov	#0,	&0x1136	;r3 As==00
    7846:	b2 f0 ef ff 88 01 	and	#-17,	&0x0188	;#0xffef
    784c:	b2 f0 ef ff 84 01 	and	#-17,	&0x0184	;#0xffef
    7852:	f2 f0 fd ff 1f 00 	and.b	#-3,	&0x001f	;#0xfffd
    7858:	7f 40 03 00 	mov.b	#3,	r15	;#0x0003
    785c:	b0 12 5e 4f 	call	#0x4f5e	
    7860:	b0 12 50 4f 	call	#0x4f50	
    7864:	4f 4b       	mov.b	r11,	r15	
    7866:	b0 12 58 4c 	call	#0x4c58	
    786a:	b0 12 46 4c 	call	#0x4c46	
    786e:	82 43 ae 11 	mov	#0,	&0x11ae	;r3 As==00
    7872:	81 4f 08 00 	mov	r15,	8(r1)	;0x0008(r1)
    7876:	b0 12 1a 47 	call	#0x471a	
    787a:	b0 12 50 4f 	call	#0x4f50	
    787e:	f2 f0 fe ff 25 00 	and.b	#-2,	&0x0025	;#0xfffe
    7884:	f2 f0 fe ff 23 00 	and.b	#-2,	&0x0023	;#0xfffe
    788a:	1f 41 08 00 	mov	8(r1),	r15	;0x0008(r1)
    788e:	b0 12 58 4c 	call	#0x4c58	
    7892:	82 43 48 11 	mov	#0,	&0x1148	;r3 As==00
    7896:	b0 12 b8 67 	call	#0x67b8	
    789a:	b0 12 46 4c 	call	#0x4c46	
    789e:	f2 f0 df ff 1d 00 	and.b	#-33,	&0x001d	;#0xffdf
    78a4:	b0 12 58 4c 	call	#0x4c58	
    78a8:	b0 12 c8 67 	call	#0x67c8	
    78ac:	7f 40 10 00 	mov.b	#16,	r15	;#0x0010
    78b0:	b0 12 36 4d 	call	#0x4d36	
    78b4:	03 3c       	jmp	$+8      	;abs 0x78bc
    78b6:	6f 43       	mov.b	#2,	r15	;r3 As==10
    78b8:	b0 12 c2 5d 	call	#0x5dc2	
    78bc:	1b 42 fc 11 	mov	&0x11fc,r11	
    78c0:	b0 12 46 4c 	call	#0x4c46	
    78c4:	c2 43 76 12 	mov.b	#0,	&0x1276	;r3 As==00
    78c8:	b0 12 58 4c 	call	#0x4c58	
    78cc:	82 93 3c 13 	tst	&0x133c	
    78d0:	02 24       	jz	$+6      	;abs 0x78d6
    78d2:	30 40 8e 7d 	br	#0x7d8e	
    78d6:	f2 43 03 11 	mov.b	#-1,	&0x1103	;r3 As==11
    78da:	0f 4b       	mov	r11,	r15	
    78dc:	30 40 32 7d 	br	#0x7d32	
    78e0:	b0 12 46 4c 	call	#0x4c46	
    78e4:	4b 4f       	mov.b	r15,	r11	
    78e6:	c2 93 50 13 	tst.b	&0x1350	
    78ea:	02 24       	jz	$+6      	;abs 0x78f0
    78ec:	30 40 ac 75 	br	#0x75ac	
    78f0:	d2 43 50 13 	mov.b	#1,	&0x1350	;r3 As==01
    78f4:	a2 92 48 11 	cmp	#4,	&0x1148	;r2 As==10
    78f8:	04 20       	jnz	$+10     	;abs 0x7902
    78fa:	5f 43       	mov.b	#1,	r15	;r3 As==01
    78fc:	b0 12 78 69 	call	#0x6978	
    7900:	52 3c       	jmp	$+166    	;abs 0x79a6
    7902:	7f 40 13 00 	mov.b	#19,	r15	;#0x0013
    7906:	b0 12 36 4d 	call	#0x4d36	
    790a:	4d 3c       	jmp	$+156    	;abs 0x79a6
    790c:	b0 12 46 4c 	call	#0x4c46	
    7910:	c2 43 50 13 	mov.b	#0,	&0x1350	;r3 As==00
    7914:	30 40 ac 75 	br	#0x75ac	
    7918:	b0 12 46 4c 	call	#0x4c46	
    791c:	5b 42 0b 11 	mov.b	&0x110b,r11	
    7920:	b0 12 58 4c 	call	#0x4c58	
    7924:	7b 90 05 00 	cmp.b	#5,	r11	;#0x0005
    7928:	02 28       	jnc	$+6      	;abs 0x792e
    792a:	30 40 8e 7d 	br	#0x7d8e	
    792e:	4f 4b       	mov.b	r11,	r15	
    7930:	0f 5f       	rla	r15		
    7932:	10 4f 26 a0 	br	-24538(r15)	;0xa026(r15)
    7936:	b0 12 26 4d 	call	#0x4d26	
    793a:	b0 12 46 4c 	call	#0x4c46	
    793e:	4b 4f       	mov.b	r15,	r11	
    7940:	a2 93 48 11 	cmp	#2,	&0x1148	;r3 As==10
    7944:	02 24       	jz	$+6      	;abs 0x794a
    7946:	30 40 ac 75 	br	#0x75ac	
    794a:	b2 40 03 00 48 11 	mov	#3,	&0x1148	;#0x0003
    7950:	3e 40 18 00 	mov	#24,	r14	;#0x0018
    7954:	7f 40 1d 00 	mov.b	#29,	r15	;#0x001d
    7958:	b0 12 66 5b 	call	#0x5b66	
    795c:	f2 f0 ef ff 25 00 	and.b	#-17,	&0x0025	;#0xffef
    7962:	f2 f0 ef ff 23 00 	and.b	#-17,	&0x0023	;#0xffef
    7968:	f2 f0 ef ff 24 00 	and.b	#-17,	&0x0024	;#0xffef
    796e:	f2 d0 10 00 25 00 	bis.b	#16,	&0x0025	;#0x0010
    7974:	5f 43       	mov.b	#1,	r15	;r3 As==01
    7976:	b0 12 f6 4c 	call	#0x4cf6	
    797a:	3e 40 7f 02 	mov	#639,	r14	;#0x027f
    797e:	7f 40 1c 00 	mov.b	#28,	r15	;#0x001c
    7982:	b0 12 66 5b 	call	#0x5b66	
    7986:	b0 12 d8 67 	call	#0x67d8	
    798a:	b0 12 04 68 	call	#0x6804	
    798e:	3e 40 56 2a 	mov	#10838,	r14	;#0x2a56
    7992:	7f 40 17 00 	mov.b	#23,	r15	;#0x0017
    7996:	b0 12 66 5b 	call	#0x5b66	
    799a:	3e 40 ff 80 	mov	#-32513,r14	;#0x80ff
    799e:	7f 40 15 00 	mov.b	#21,	r15	;#0x0015
    79a2:	b0 12 66 5b 	call	#0x5b66	
    79a6:	4f 4b       	mov.b	r11,	r15	
    79a8:	30 40 ac 75 	br	#0x75ac	
    79ac:	b0 12 26 4d 	call	#0x4d26	
    79b0:	7f 40 06 00 	mov.b	#6,	r15	;#0x0006
    79b4:	b0 12 f6 4c 	call	#0x4cf6	
    79b8:	b0 12 d8 67 	call	#0x67d8	
    79bc:	b0 12 04 68 	call	#0x6804	
    79c0:	b0 12 22 5c 	call	#0x5c22	
    79c4:	b0 12 50 4f 	call	#0x4f50	
    79c8:	b0 12 26 4d 	call	#0x4d26	
    79cc:	7f 40 03 00 	mov.b	#3,	r15	;#0x0003
    79d0:	b0 12 f6 4c 	call	#0x4cf6	
    79d4:	b0 12 50 4f 	call	#0x4f50	
    79d8:	5f 43       	mov.b	#1,	r15	;r3 As==01
    79da:	b0 12 5e 4f 	call	#0x4f5e	
    79de:	7f 40 13 00 	mov.b	#19,	r15	;#0x0013
    79e2:	30 40 00 77 	br	#0x7700	
    79e6:	b0 12 26 4d 	call	#0x4d26	
    79ea:	b0 12 46 4c 	call	#0x4c46	
    79ee:	4b 4f       	mov.b	r15,	r11	
    79f0:	b0 12 dc 4c 	call	#0x4cdc	
    79f4:	4f 93       	tst.b	r15		
    79f6:	04 24       	jz	$+10     	;abs 0x7a00
    79f8:	4f 4b       	mov.b	r11,	r15	
    79fa:	b0 12 58 4c 	call	#0x4c58	
    79fe:	0d 3c       	jmp	$+28     	;abs 0x7a1a
    7a00:	4f 4b       	mov.b	r11,	r15	
    7a02:	b0 12 58 4c 	call	#0x4c58	
    7a06:	7f 40 53 00 	mov.b	#83,	r15	;#0x0053
    7a0a:	b0 12 b8 45 	call	#0x45b8	
    7a0e:	4f 43       	clr.b	r15		
    7a10:	b0 12 b8 45 	call	#0x45b8	
    7a14:	4f 43       	clr.b	r15		
    7a16:	b0 12 b8 45 	call	#0x45b8	
    7a1a:	b0 12 50 4f 	call	#0x4f50	
    7a1e:	6f 43       	mov.b	#2,	r15	;r3 As==10
    7a20:	b0 12 5e 4f 	call	#0x4f5e	
    7a24:	30 40 8e 7d 	br	#0x7d8e	
    7a28:	b0 12 46 4c 	call	#0x4c46	
    7a2c:	5b 42 36 11 	mov.b	&0x1136,r11	
    7a30:	b0 12 58 4c 	call	#0x4c58	
    7a34:	6b 92       	cmp.b	#4,	r11	;r2 As==10
    7a36:	08 24       	jz	$+18     	;abs 0x7a48
    7a38:	7b 92       	cmp.b	#8,	r11	;r2 As==11
    7a3a:	0a 24       	jz	$+22     	;abs 0x7a50
    7a3c:	6b 93       	cmp.b	#2,	r11	;r3 As==10
    7a3e:	1e 20       	jnz	$+62     	;abs 0x7a7c
    7a40:	b0 12 d6 5d 	call	#0x5dd6	
    7a44:	30 40 8e 7d 	br	#0x7d8e	
    7a48:	b0 12 c6 51 	call	#0x51c6	
    7a4c:	30 40 8e 7d 	br	#0x7d8e	
    7a50:	b0 12 26 4d 	call	#0x4d26	
    7a54:	7f 40 09 00 	mov.b	#9,	r15	;#0x0009
    7a58:	b0 12 f6 4c 	call	#0x4cf6	
    7a5c:	b0 12 50 4f 	call	#0x4f50	
    7a60:	b0 12 1a 50 	call	#0x501a	
    7a64:	b0 12 46 4c 	call	#0x4c46	
    7a68:	92 43 36 11 	mov	#1,	&0x1136	;r3 As==01
    7a6c:	b0 12 58 4c 	call	#0x4c58	
    7a70:	7f 40 03 00 	mov.b	#3,	r15	;#0x0003
    7a74:	b0 12 1a 4f 	call	#0x4f1a	
    7a78:	30 40 8e 7d 	br	#0x7d8e	
    7a7c:	b0 12 1a 50 	call	#0x501a	
    7a80:	30 40 8e 7d 	br	#0x7d8e	
    7a84:	b0 12 0a 4f 	call	#0x4f0a	
    7a88:	30 40 8e 7d 	br	#0x7d8e	
    7a8c:	b0 12 46 4c 	call	#0x4c46	
    7a90:	81 4f 08 00 	mov	r15,	8(r1)	;0x0008(r1)
    7a94:	b0 12 b0 6b 	call	#0x6bb0	
    7a98:	1f 41 08 00 	mov	8(r1),	r15	;0x0008(r1)
    7a9c:	30 40 ac 75 	br	#0x75ac	
    7aa0:	b0 12 46 4c 	call	#0x4c46	
    7aa4:	d2 42 b0 11 08 11 	mov.b	&0x11b0,&0x1108	
    7aaa:	f2 40 03 00 44 11 	mov.b	#3,	&0x1144	;#0x0003
    7ab0:	b0 12 58 4c 	call	#0x4c58	
    7ab4:	c2 93 08 11 	tst.b	&0x1108	
    7ab8:	02 20       	jnz	$+6      	;abs 0x7abe
    7aba:	b0 12 16 6a 	call	#0x6a16	
    7abe:	c2 93 08 11 	tst.b	&0x1108	
    7ac2:	02 24       	jz	$+6      	;abs 0x7ac8
    7ac4:	30 40 8e 7d 	br	#0x7d8e	
    7ac8:	7f 40 14 00 	mov.b	#20,	r15	;#0x0014
    7acc:	30 40 00 77 	br	#0x7700	
    7ad0:	1a 42 62 11 	mov	&0x1162,r10	
    7ad4:	67 4a       	mov.b	@r10,	r7	
    7ad6:	4e 47       	mov.b	r7,	r14	
    7ad8:	0e 5a       	add	r10,	r14	
    7ada:	6f 4e       	mov.b	@r14,	r15	
    7adc:	4f 5f       	rla.b	r15		
    7ade:	0f 43       	clr	r15		
    7ae0:	0f 6f       	rlc	r15		
    7ae2:	ca 4f 2b 00 	mov.b	r15,	43(r10)	;0x002b(r10)
    7ae6:	6f 4e       	mov.b	@r14,	r15	
    7ae8:	7f f0 7f 00 	and.b	#127,	r15	;#0x007f
    7aec:	ca 4f 29 00 	mov.b	r15,	41(r10)	;0x0029(r10)
    7af0:	da 4e ff ff 28 00 	mov.b	-1(r14),40(r10)	;0xffff(r14), 0x0028(r10)
    7af6:	59 4a 02 00 	mov.b	2(r10),	r9	;0x0002(r10)
    7afa:	5b 4a 01 00 	mov.b	1(r10),	r11	;0x0001(r10)
    7afe:	b0 12 46 4c 	call	#0x4c46	
    7b02:	58 42 b4 11 	mov.b	&0x11b4,r8	
    7b06:	b0 12 58 4c 	call	#0x4c58	
    7b0a:	48 93       	tst.b	r8		
    7b0c:	43 24       	jz	$+136    	;abs 0x7b94
    7b0e:	4e 49       	mov.b	r9,	r14	
    7b10:	8e 10       	swpb	r14		
    7b12:	4f 4b       	mov.b	r11,	r15	
    7b14:	0e df       	bis	r15,	r14	
    7b16:	8e 10       	swpb	r14		
    7b18:	4e 4e       	mov.b	r14,	r14	
    7b1a:	12 c3       	clrc			
    7b1c:	0e 10       	rrc	r14		
    7b1e:	12 c3       	clrc			
    7b20:	0e 10       	rrc	r14		
    7b22:	3e f0 03 00 	and	#3,	r14	;#0x0003
    7b26:	2e 93       	cmp	#2,	r14	;r3 As==10
    7b28:	1d 20       	jnz	$+60     	;abs 0x7b64
    7b2a:	58 4a 07 00 	mov.b	7(r10),	r8	;0x0007(r10)
    7b2e:	88 10       	swpb	r8		
    7b30:	5f 4a 06 00 	mov.b	6(r10),	r15	;0x0006(r10)
    7b34:	08 df       	bis	r15,	r8	
    7b36:	b0 12 46 4c 	call	#0x4c46	
    7b3a:	1b 42 ee 11 	mov	&0x11ee,r11	
    7b3e:	b0 12 58 4c 	call	#0x4c58	
    7b42:	08 9b       	cmp	r11,	r8	
    7b44:	0b 24       	jz	$+24     	;abs 0x7b5c
    7b46:	5f 4a 07 00 	mov.b	7(r10),	r15	;0x0007(r10)
    7b4a:	8f 10       	swpb	r15		
    7b4c:	5e 4a 06 00 	mov.b	6(r10),	r14	;0x0006(r10)
    7b50:	0f de       	bis	r14,	r15	
    7b52:	1e 43       	mov	#1,	r14	;r3 As==01
    7b54:	3f 93       	cmp	#-1,	r15	;r3 As==11
    7b56:	03 24       	jz	$+8      	;abs 0x7b5e
    7b58:	0e 43       	clr	r14		
    7b5a:	01 3c       	jmp	$+4      	;abs 0x7b5e
    7b5c:	1e 43       	mov	#1,	r14	;r3 As==01
    7b5e:	0e 93       	tst	r14		
    7b60:	19 20       	jnz	$+52     	;abs 0x7b94
    7b62:	cb 3c       	jmp	$+408    	;abs 0x7cfa
    7b64:	3e 90 03 00 	cmp	#3,	r14	;#0x0003
    7b68:	c8 20       	jnz	$+402    	;abs 0x7cfa
    7b6a:	91 42 88 12 00 00 	mov	&0x1288,0(r1)	;0x0000(r1)
    7b70:	91 42 8a 12 02 00 	mov	&0x128a,2(r1)	;0x0002(r1)
    7b76:	91 42 8c 12 04 00 	mov	&0x128c,4(r1)	;0x0004(r1)
    7b7c:	91 42 8e 12 06 00 	mov	&0x128e,6(r1)	;0x0006(r1)
    7b82:	3d 42       	mov	#8,	r13	;r2 As==11
    7b84:	0e 41       	mov	r1,	r14	
    7b86:	0f 4a       	mov	r10,	r15	
    7b88:	3f 50 06 00 	add	#6,	r15	;#0x0006
    7b8c:	b0 12 88 93 	call	#0x9388	
    7b90:	0f 93       	tst	r15		
    7b92:	b3 20       	jnz	$+360    	;abs 0x7cfa
    7b94:	77 90 0d 00 	cmp.b	#13,	r7	;#0x000d
    7b98:	b0 28       	jnc	$+354    	;abs 0x7cfa
    7b9a:	1a 42 62 11 	mov	&0x1162,r10	
    7b9e:	5e 4a 02 00 	mov.b	2(r10),	r14	;0x0002(r10)
    7ba2:	8e 10       	swpb	r14		
    7ba4:	5f 4a 01 00 	mov.b	1(r10),	r15	;0x0001(r10)
    7ba8:	0e df       	bis	r15,	r14	
    7baa:	0f 4e       	mov	r14,	r15	
    7bac:	8f 10       	swpb	r15		
    7bae:	4f 4f       	mov.b	r15,	r15	
    7bb0:	12 c3       	clrc			
    7bb2:	0f 10       	rrc	r15		
    7bb4:	12 c3       	clrc			
    7bb6:	0f 10       	rrc	r15		
    7bb8:	3f f0 03 00 	and	#3,	r15	;#0x0003
    7bbc:	0c 4a       	mov	r10,	r12	
    7bbe:	3c 50 06 00 	add	#6,	r12	;#0x0006
    7bc2:	8e 10       	swpb	r14		
    7bc4:	4e 4e       	mov.b	r14,	r14	
    7bc6:	7d 40 06 00 	mov.b	#6,	r13	;#0x0006
    7bca:	12 c3       	clrc			
    7bcc:	0e 10       	rrc	r14		
    7bce:	7d 53       	add.b	#-1,	r13	;r3 As==11
    7bd0:	fc 23       	jnz	$-6      	;abs 0x7bca
    7bd2:	3e 90 03 00 	cmp	#3,	r14	;#0x0003
    7bd6:	02 24       	jz	$+6      	;abs 0x7bdc
    7bd8:	2e 43       	mov	#2,	r14	;r3 As==10
    7bda:	01 3c       	jmp	$+4      	;abs 0x7bde
    7bdc:	3e 42       	mov	#8,	r14	;r2 As==11
    7bde:	3f 90 03 00 	cmp	#3,	r15	;#0x0003
    7be2:	02 24       	jz	$+6      	;abs 0x7be8
    7be4:	2f 43       	mov	#2,	r15	;r3 As==10
    7be6:	01 3c       	jmp	$+4      	;abs 0x7bea
    7be8:	3f 42       	mov	#8,	r15	;r2 As==11
    7bea:	0c 5f       	add	r15,	r12	
    7bec:	08 43       	clr	r8		
    7bee:	0f 43       	clr	r15		
    7bf0:	0d 4c       	mov	r12,	r13	
    7bf2:	0d 5f       	add	r15,	r13	
    7bf4:	6d 4d       	mov.b	@r13,	r13	
    7bf6:	08 5d       	add	r13,	r8	
    7bf8:	1f 53       	inc	r15		
    7bfa:	0f 9e       	cmp	r14,	r15	
    7bfc:	f9 3b       	jl	$-12     	;abs 0x7bf0
    7bfe:	59 4a 03 00 	mov.b	3(r10),	r9	;0x0003(r10)
    7c02:	f2 43 3e 13 	mov.b	#-1,	&0x133e	;r3 As==11
    7c06:	b0 12 46 4c 	call	#0x4c46	
    7c0a:	5c 42 3e 13 	mov.b	&0x133e,r12	
    7c0e:	3e 40 6e 11 	mov	#4462,	r14	;#0x116e
    7c12:	0d 43       	clr	r13		
    7c14:	28 9e       	cmp	@r14,	r8	
    7c16:	09 20       	jnz	$+20     	;abs 0x7c2a
    7c18:	ce 99 02 00 	cmp.b	r9,	2(r14)	;0x0002(r14)
    7c1c:	05 20       	jnz	$+12     	;abs 0x7c28
    7c1e:	c2 4c 3e 13 	mov.b	r12,	&0x133e	
    7c22:	b0 12 58 4c 	call	#0x4c58	
    7c26:	67 3c       	jmp	$+208    	;abs 0x7cf6
    7c28:	4c 4d       	mov.b	r13,	r12	
    7c2a:	1d 53       	inc	r13		
    7c2c:	2e 52       	add	#4,	r14	;r2 As==10
    7c2e:	2d 92       	cmp	#4,	r13	;r2 As==10
    7c30:	f1 23       	jnz	$-28     	;abs 0x7c14
    7c32:	c2 4c 3e 13 	mov.b	r12,	&0x133e	
    7c36:	b0 12 58 4c 	call	#0x4c58	
    7c3a:	5b 42 3e 13 	mov.b	&0x133e,r11	
    7c3e:	b0 12 46 4c 	call	#0x4c46	
    7c42:	7b 93       	cmp.b	#-1,	r11	;r3 As==11
    7c44:	03 24       	jz	$+8      	;abs 0x7c4c
    7c46:	c2 9b 32 11 	cmp.b	r11,	&0x1132	
    7c4a:	04 20       	jnz	$+10     	;abs 0x7c54
    7c4c:	5b 42 32 11 	mov.b	&0x1132,r11	
    7c50:	5d 43       	mov.b	#1,	r13	;r3 As==01
    7c52:	01 3c       	jmp	$+4      	;abs 0x7c56
    7c54:	4d 43       	clr.b	r13		
    7c56:	4e 4b       	mov.b	r11,	r14	
    7c58:	0e 5e       	rla	r14		
    7c5a:	0e 5e       	rla	r14		
    7c5c:	8e 48 6e 11 	mov	r8,	4462(r14);0x116e(r14)
    7c60:	ce 49 70 11 	mov.b	r9,	4464(r14);0x1170(r14)
    7c64:	4d 93       	tst.b	r13		
    7c66:	07 24       	jz	$+16     	;abs 0x7c76
    7c68:	5e 42 32 11 	mov.b	&0x1132,r14	
    7c6c:	5e 53       	inc.b	r14		
    7c6e:	7e f0 03 00 	and.b	#3,	r14	;#0x0003
    7c72:	c2 4e 32 11 	mov.b	r14,	&0x1132	
    7c76:	b0 12 58 4c 	call	#0x4c58	
    7c7a:	b0 12 46 4c 	call	#0x4c46	
    7c7e:	49 4f       	mov.b	r15,	r9	
    7c80:	0f 4a       	mov	r10,	r15	
    7c82:	b0 12 d4 46 	call	#0x46d4	
    7c86:	6b 4f       	mov.b	@r15,	r11	
    7c88:	4f 49       	mov.b	r9,	r15	
    7c8a:	b0 12 58 4c 	call	#0x4c58	
    7c8e:	ca 93 2b 00 	tst.b	43(r10)	;0x002b(r10)
    7c92:	31 24       	jz	$+100    	;abs 0x7cf6
    7c94:	7b 90 3f 00 	cmp.b	#63,	r11	;#0x003f
    7c98:	2e 20       	jnz	$+94     	;abs 0x7cf6
    7c9a:	58 4a 07 00 	mov.b	7(r10),	r8	;0x0007(r10)
    7c9e:	88 10       	swpb	r8		
    7ca0:	5f 4a 06 00 	mov.b	6(r10),	r15	;0x0006(r10)
    7ca4:	08 df       	bis	r15,	r8	
    7ca6:	b0 12 46 4c 	call	#0x4c46	
    7caa:	1b 42 06 11 	mov	&0x1106,r11	
    7cae:	b0 12 58 4c 	call	#0x4c58	
    7cb2:	08 9b       	cmp	r11,	r8	
    7cb4:	0b 24       	jz	$+24     	;abs 0x7ccc
    7cb6:	5f 4a 07 00 	mov.b	7(r10),	r15	;0x0007(r10)
    7cba:	8f 10       	swpb	r15		
    7cbc:	5e 4a 06 00 	mov.b	6(r10),	r14	;0x0006(r10)
    7cc0:	0f de       	bis	r14,	r15	
    7cc2:	1e 43       	mov	#1,	r14	;r3 As==01
    7cc4:	3f 93       	cmp	#-1,	r15	;r3 As==11
    7cc6:	03 24       	jz	$+8      	;abs 0x7cce
    7cc8:	0e 43       	clr	r14		
    7cca:	01 3c       	jmp	$+4      	;abs 0x7cce
    7ccc:	1e 43       	mov	#1,	r14	;r3 As==01
    7cce:	0e 93       	tst	r14		
    7cd0:	12 24       	jz	$+38     	;abs 0x7cf6
    7cd2:	fa 90 88 ff 0b 00 	cmp.b	#-120,	11(r10)	;#0xff88, 0x000b(r10)
    7cd8:	0e 20       	jnz	$+30     	;abs 0x7cf6
    7cda:	77 90 21 00 	cmp.b	#33,	r7	;#0x0021
    7cde:	0b 20       	jnz	$+24     	;abs 0x7cf6
    7ce0:	0f 4a       	mov	r10,	r15	
    7ce2:	3f 50 0c 00 	add	#12,	r15	;#0x000c
    7ce6:	82 4f 4a 13 	mov	r15,	&0x134a	
    7cea:	0f 12       	push	r15		
    7cec:	30 12 e1 9f 	push	#-24607	;#0x9fe1
    7cf0:	b0 12 0c 95 	call	#0x950c	
    7cf4:	21 52       	add	#4,	r1	;r2 As==10
    7cf6:	82 4a 62 11 	mov	r10,	&0x1162	
    7cfa:	b0 12 46 4c 	call	#0x4c46	
    7cfe:	c2 43 ca 11 	mov.b	#0,	&0x11ca	;r3 As==00
    7d02:	b0 12 58 4c 	call	#0x4c58	
    7d06:	b0 12 3a 6b 	call	#0x6b3a	
    7d0a:	41 3c       	jmp	$+132    	;abs 0x7d8e
    7d0c:	5f 42 dc 11 	mov.b	&0x11dc,r15	
    7d10:	5f 92 03 11 	cmp.b	&0x1103,r15	
    7d14:	3c 24       	jz	$+122    	;abs 0x7d8e
    7d16:	c2 4f 03 11 	mov.b	r15,	&0x1103	
    7d1a:	4f 93       	tst.b	r15		
    7d1c:	0d 20       	jnz	$+28     	;abs 0x7d38
    7d1e:	1f 42 30 11 	mov	&0x1130,r15	
    7d22:	b0 12 be 6e 	call	#0x6ebe	
    7d26:	4f 93       	tst.b	r15		
    7d28:	32 24       	jz	$+102    	;abs 0x7d8e
    7d2a:	f2 43 03 11 	mov.b	#-1,	&0x1103	;r3 As==11
    7d2e:	1f 42 30 11 	mov	&0x1130,r15	
    7d32:	b0 12 1c 71 	call	#0x711c	
    7d36:	2b 3c       	jmp	$+88     	;abs 0x7d8e
    7d38:	f2 43 03 11 	mov.b	#-1,	&0x1103	;r3 As==11
    7d3c:	28 3c       	jmp	$+82     	;abs 0x7d8e
    7d3e:	5d 42 3a 13 	mov.b	&0x133a,r13	
    7d42:	4d 93       	tst.b	r13		
    7d44:	24 24       	jz	$+74     	;abs 0x7d8e
    7d46:	1b 42 5e 11 	mov	&0x115e,r11	
    7d4a:	3e 40 00 12 	mov	#4608,	r14	;#0x1200
    7d4e:	4c 43       	clr.b	r12		
    7d50:	5f 43       	mov.b	#1,	r15	;r3 As==01
    7d52:	4d bf       	bit.b	r15,	r13	
    7d54:	0a 24       	jz	$+22     	;abs 0x7d6a
    7d56:	2a 4e       	mov	@r14,	r10	
    7d58:	8e 43 00 00 	mov	#0,	0(r14)	;r3 As==00, 0x0000(r14)
    7d5c:	4d cf       	bic.b	r15,	r13	
    7d5e:	4c 93       	tst.b	r12		
    7d60:	04 20       	jnz	$+10     	;abs 0x7d6a
    7d62:	3a 90 92 12 	cmp	#4754,	r10	;#0x1292
    7d66:	01 20       	jnz	$+4      	;abs 0x7d6a
    7d68:	0b 43       	clr	r11		
    7d6a:	4f 5f       	rla.b	r15		
    7d6c:	5c 53       	inc.b	r12		
    7d6e:	2e 53       	incd	r14		
    7d70:	7c 92       	cmp.b	#8,	r12	;r2 As==11
    7d72:	ef 23       	jnz	$-32     	;abs 0x7d52
    7d74:	c2 4d 3a 13 	mov.b	r13,	&0x133a	
    7d78:	82 4b 5e 11 	mov	r11,	&0x115e	
    7d7c:	08 3c       	jmp	$+18     	;abs 0x7d8e
    7d7e:	5f 42 00 11 	mov.b	&0x1100,r15	
    7d82:	4e 4f       	mov.b	r15,	r14	
    7d84:	0e 5e       	rla	r14		
    7d86:	1e 4e 00 12 	mov	4608(r14),r14	;0x1200(r14)
    7d8a:	b0 12 aa 70 	call	#0x70aa	
    7d8e:	31 50 0a 00 	add	#10,	r1	;#0x000a
    7d92:	36 41       	pop	r6		
    7d94:	37 41       	pop	r7		
    7d96:	38 41       	pop	r8		
    7d98:	39 41       	pop	r9		
    7d9a:	3a 41       	pop	r10		
    7d9c:	3b 41       	pop	r11		
    7d9e:	30 41       	ret			

00007da0 <RealMainP__Scheduler__runNextTask>:
    7da0:	f2 93 29 13 	cmp.b	#-1,	&0x1329	;r3 As==11
    7da4:	08 24       	jz	$+18     	;abs 0x7db6
    7da6:	b0 12 70 4a 	call	#0x4a70	
    7daa:	7f 93       	cmp.b	#-1,	r15	;r3 As==11
    7dac:	06 24       	jz	$+14     	;abs 0x7dba
    7dae:	b0 12 b0 73 	call	#0x73b0	
    7db2:	5f 43       	mov.b	#1,	r15	;r3 As==01
    7db4:	30 41       	ret			
    7db6:	4f 43       	clr.b	r15		
    7db8:	30 41       	ret			
    7dba:	4f 43       	clr.b	r15		
    7dbc:	30 41       	ret			

00007dbe <Msp430TimerP__1__Event__fired>:
    7dbe:	0b 12       	push	r11		
    7dc0:	0a 12       	push	r10		
    7dc2:	09 12       	push	r9		
    7dc4:	08 12       	push	r8		
    7dc6:	07 12       	push	r7		
    7dc8:	06 12       	push	r6		
    7dca:	05 12       	push	r5		
    7dcc:	7f 92       	cmp.b	#8,	r15	;r2 As==11
    7dce:	02 28       	jnc	$+6      	;abs 0x7dd4
    7dd0:	30 40 8e 81 	br	#0x818e	
    7dd4:	4f 4f       	mov.b	r15,	r15	
    7dd6:	0f 5f       	rla	r15		
    7dd8:	10 4f 30 a0 	br	-24528(r15)	;0xa030(r15)
    7ddc:	1f 42 82 01 	mov	&0x0182,r15	
    7de0:	8f 10       	swpb	r15		
    7de2:	5f f3       	and.b	#1,	r15	;r3 As==01
    7de4:	04 24       	jz	$+10     	;abs 0x7dee
    7de6:	1f 42 92 01 	mov	&0x0192,r15	
    7dea:	30 40 8e 81 	br	#0x818e	
    7dee:	b2 f0 ef ff 82 01 	and	#-17,	&0x0182	;#0xffef
    7df4:	82 93 e4 11 	tst	&0x11e4	
    7df8:	08 20       	jnz	$+18     	;abs 0x7e0a
    7dfa:	82 93 e6 11 	tst	&0x11e6	
    7dfe:	05 20       	jnz	$+12     	;abs 0x7e0a
    7e00:	5f 43       	mov.b	#1,	r15	;r3 As==01
    7e02:	b0 12 36 4d 	call	#0x4d36	
    7e06:	30 40 8e 81 	br	#0x818e	
    7e0a:	b0 12 fa 53 	call	#0x53fa	
    7e0e:	30 40 8e 81 	br	#0x818e	
    7e12:	1f 42 84 01 	mov	&0x0184,r15	
    7e16:	8f 10       	swpb	r15		
    7e18:	5f f3       	and.b	#1,	r15	;r3 As==01
    7e1a:	02 20       	jnz	$+6      	;abs 0x7e20
    7e1c:	30 40 8e 81 	br	#0x818e	
    7e20:	18 42 94 01 	mov	&0x0194,r8	
    7e24:	b2 f0 fe ff 84 01 	and	#-2,	&0x0184	;#0xfffe
    7e2a:	b2 f0 fd ff 84 01 	and	#-3,	&0x0184	;#0xfffd
    7e30:	b0 12 26 50 	call	#0x5026	
    7e34:	0c 4e       	mov	r14,	r12	
    7e36:	0c 88       	sub	r8,	r12	
    7e38:	0d 43       	clr	r13		
    7e3a:	06 4e       	mov	r14,	r6	
    7e3c:	07 4f       	mov	r15,	r7	
    7e3e:	06 8c       	sub	r12,	r6	
    7e40:	07 7d       	subc	r13,	r7	
    7e42:	1f 42 36 11 	mov	&0x1136,r15	
    7e46:	3f 90 05 00 	cmp	#5,	r15	;#0x0005
    7e4a:	04 24       	jz	$+10     	;abs 0x7e54
    7e4c:	3f 90 06 00 	cmp	#6,	r15	;#0x0006
    7e50:	bc 20       	jnz	$+378    	;abs 0x7fca
    7e52:	9a 3c       	jmp	$+310    	;abs 0x7f88
    7e54:	b2 40 06 00 36 11 	mov	#6,	&0x1136	;#0x0006
    7e5a:	d2 43 c7 11 	mov.b	#1,	&0x11c7	;r3 As==01
    7e5e:	c2 43 34 11 	mov.b	#0,	&0x1134	;r3 As==00
    7e62:	6f 43       	mov.b	#2,	r15	;r3 As==10
    7e64:	b0 12 7a 46 	call	#0x467a	
    7e68:	1c 42 d6 11 	mov	&0x11d6,r12	
    7e6c:	cc 46 31 00 	mov.b	r6,	49(r12)	;0x0031(r12)
    7e70:	0f 46       	mov	r6,	r15	
    7e72:	0d 47       	mov	r7,	r13	
    7e74:	8f 10       	swpb	r15		
    7e76:	8d 10       	swpb	r13		
    7e78:	4f ed       	xor.b	r13,	r15	
    7e7a:	0f ed       	xor	r13,	r15	
    7e7c:	cc 4f 30 00 	mov.b	r15,	48(r12)	;0x0030(r12)
    7e80:	0f 47       	mov	r7,	r15	
    7e82:	cc 47 2f 00 	mov.b	r7,	47(r12)	;0x002f(r12)
    7e86:	8f 10       	swpb	r15		
    7e88:	cc 4f 2e 00 	mov.b	r15,	46(r12)	;0x002e(r12)
    7e8c:	cc 93 2d 00 	tst.b	45(r12)	;0x002d(r12)
    7e90:	64 24       	jz	$+202    	;abs 0x7f5a
    7e92:	65 4c       	mov.b	@r12,	r5	
    7e94:	75 50 fb ff 	add.b	#-5,	r5	;#0xfffb
    7e98:	49 45       	mov.b	r5,	r9	
    7e9a:	09 5c       	add	r12,	r9	
    7e9c:	6d 49       	mov.b	@r9,	r13	
    7e9e:	0a 43       	clr	r10		
    7ea0:	0b 43       	clr	r11		
    7ea2:	0b 4d       	mov	r13,	r11	
    7ea4:	8b 10       	swpb	r11		
    7ea6:	0c 43       	clr	r12		
    7ea8:	0d 43       	clr	r13		
    7eaa:	5d 49 01 00 	mov.b	1(r9),	r13	;0x0001(r9)
    7eae:	0c da       	bis	r10,	r12	
    7eb0:	0d db       	bis	r11,	r13	
    7eb2:	5a 49 03 00 	mov.b	3(r9),	r10	;0x0003(r9)
    7eb6:	0b 43       	clr	r11		
    7eb8:	0c da       	bis	r10,	r12	
    7eba:	0d db       	bis	r11,	r13	
    7ebc:	5a 49 02 00 	mov.b	2(r9),	r10	;0x0002(r9)
    7ec0:	4b ea       	xor.b	r10,	r11	
    7ec2:	0b ea       	xor	r10,	r11	
    7ec4:	8b 10       	swpb	r11		
    7ec6:	4a 4a       	mov.b	r10,	r10	
    7ec8:	8a 10       	swpb	r10		
    7eca:	0c da       	bis	r10,	r12	
    7ecc:	0d db       	bis	r11,	r13	
    7ece:	0c 86       	sub	r6,	r12	
    7ed0:	0d 77       	subc	r7,	r13	
    7ed2:	c9 4c 03 00 	mov.b	r12,	3(r9)	;0x0003(r9)
    7ed6:	0a 4d       	mov	r13,	r10	
    7ed8:	8c 10       	swpb	r12		
    7eda:	8a 10       	swpb	r10		
    7edc:	4c ea       	xor.b	r10,	r12	
    7ede:	0c ea       	xor	r10,	r12	
    7ee0:	c9 4c 02 00 	mov.b	r12,	2(r9)	;0x0002(r9)
    7ee4:	0f 4d       	mov	r13,	r15	
    7ee6:	c9 4d 01 00 	mov.b	r13,	1(r9)	;0x0001(r9)
    7eea:	8f 10       	swpb	r15		
    7eec:	c9 4f 00 00 	mov.b	r15,	0(r9)	;0x0000(r9)
    7ef0:	b0 12 26 4d 	call	#0x4d26	
    7ef4:	6c 42       	mov.b	#4,	r12	;r2 As==10
    7ef6:	0d 49       	mov	r9,	r13	
    7ef8:	4e 45       	mov.b	r5,	r14	
    7efa:	0f 43       	clr	r15		
    7efc:	b0 12 aa 5b 	call	#0x5baa	
    7f00:	b0 12 50 4f 	call	#0x4f50	
    7f04:	6f 49       	mov.b	@r9,	r15	
    7f06:	0c 43       	clr	r12		
    7f08:	0d 43       	clr	r13		
    7f0a:	0d 4f       	mov	r15,	r13	
    7f0c:	8d 10       	swpb	r13		
    7f0e:	0a 43       	clr	r10		
    7f10:	0b 43       	clr	r11		
    7f12:	5b 49 01 00 	mov.b	1(r9),	r11	;0x0001(r9)
    7f16:	0c da       	bis	r10,	r12	
    7f18:	0d db       	bis	r11,	r13	
    7f1a:	5a 49 03 00 	mov.b	3(r9),	r10	;0x0003(r9)
    7f1e:	0b 43       	clr	r11		
    7f20:	0c da       	bis	r10,	r12	
    7f22:	0d db       	bis	r11,	r13	
    7f24:	5a 49 02 00 	mov.b	2(r9),	r10	;0x0002(r9)
    7f28:	4b ea       	xor.b	r10,	r11	
    7f2a:	0b ea       	xor	r10,	r11	
    7f2c:	8b 10       	swpb	r11		
    7f2e:	4a 4a       	mov.b	r10,	r10	
    7f30:	8a 10       	swpb	r10		
    7f32:	0c da       	bis	r10,	r12	
    7f34:	0d db       	bis	r11,	r13	
    7f36:	0c 56       	add	r6,	r12	
    7f38:	0d 67       	addc	r7,	r13	
    7f3a:	c9 4c 03 00 	mov.b	r12,	3(r9)	;0x0003(r9)
    7f3e:	0f 4c       	mov	r12,	r15	
    7f40:	0c 4d       	mov	r13,	r12	
    7f42:	8f 10       	swpb	r15		
    7f44:	8c 10       	swpb	r12		
    7f46:	4f ec       	xor.b	r12,	r15	
    7f48:	0f ec       	xor	r12,	r15	
    7f4a:	c9 4f 02 00 	mov.b	r15,	2(r9)	;0x0002(r9)
    7f4e:	0f 4d       	mov	r13,	r15	
    7f50:	c9 4d 01 00 	mov.b	r13,	1(r9)	;0x0001(r9)
    7f54:	8f 10       	swpb	r15		
    7f56:	c9 4f 00 00 	mov.b	r15,	0(r9)	;0x0000(r9)
    7f5a:	1d 42 d6 11 	mov	&0x11d6,r13	
    7f5e:	5f 4d 02 00 	mov.b	2(r13),	r15	;0x0002(r13)
    7f62:	8f 10       	swpb	r15		
    7f64:	5d 4d 01 00 	mov.b	1(r13),	r13	;0x0001(r13)
    7f68:	0f dd       	bis	r13,	r15	
    7f6a:	3f f0 20 00 	and	#32,	r15	;#0x0020
    7f6e:	02 24       	jz	$+6      	;abs 0x7f74
    7f70:	d2 43 8e 11 	mov.b	#1,	&0x118e	;r3 As==01
    7f74:	b0 12 1a 50 	call	#0x501a	
    7f78:	b2 f0 ef ff 88 01 	and	#-17,	&0x0188	;#0xffef
    7f7e:	e2 b3 1c 00 	bit.b	#2,	&0x001c	;r3 As==10
    7f82:	02 24       	jz	$+6      	;abs 0x7f88
    7f84:	30 40 8e 81 	br	#0x818e	
    7f88:	c2 43 c7 11 	mov.b	#0,	&0x11c7	;r3 As==00
    7f8c:	5f 43       	mov.b	#1,	r15	;r3 As==01
    7f8e:	b0 12 7a 46 	call	#0x467a	
    7f92:	1d 42 d6 11 	mov	&0x11d6,r13	
    7f96:	5f 4d 02 00 	mov.b	2(r13),	r15	;0x0002(r13)
    7f9a:	8f 10       	swpb	r15		
    7f9c:	5d 4d 01 00 	mov.b	1(r13),	r13	;0x0001(r13)
    7fa0:	0f dd       	bis	r13,	r15	
    7fa2:	3f f0 20 00 	and	#32,	r15	;#0x0020
    7fa6:	09 24       	jz	$+20     	;abs 0x7fba
    7fa8:	b2 40 07 00 36 11 	mov	#7,	&0x1136	;#0x0007
    7fae:	3e 40 00 01 	mov	#256,	r14	;#0x0100
    7fb2:	0f 43       	clr	r15		
    7fb4:	b0 12 54 51 	call	#0x5154	
    7fb8:	03 3c       	jmp	$+8      	;abs 0x7fc0
    7fba:	4f 43       	clr.b	r15		
    7fbc:	b0 12 36 4f 	call	#0x4f36	
    7fc0:	e2 b3 1c 00 	bit.b	#2,	&0x001c	;r3 As==10
    7fc4:	02 20       	jnz	$+6      	;abs 0x7fca
    7fc6:	30 40 8e 81 	br	#0x818e	
    7fca:	c2 93 34 11 	tst.b	&0x1134	
    7fce:	27 20       	jnz	$+80     	;abs 0x801e
    7fd0:	c2 93 c7 11 	tst.b	&0x11c7	
    7fd4:	24 20       	jnz	$+74     	;abs 0x801e
    7fd6:	d2 43 c7 11 	mov.b	#1,	&0x11c7	;r3 As==01
    7fda:	6f 43       	mov.b	#2,	r15	;r3 As==10
    7fdc:	b0 12 7a 46 	call	#0x467a	
    7fe0:	5c 42 1c 00 	mov.b	&0x001c,r12	
    7fe4:	5d 42 28 13 	mov.b	&0x1328,r13	
    7fe8:	7d 92       	cmp.b	#8,	r13	;r2 As==11
    7fea:	0e 2c       	jc	$+30     	;abs 0x8008
    7fec:	4f 4d       	mov.b	r13,	r15	
    7fee:	5f 52 30 13 	add.b	&0x1330,r15	
    7ff2:	3f f0 07 00 	and	#7,	r15	;#0x0007
    7ff6:	0f 5f       	rla	r15		
    7ff8:	0f 5f       	rla	r15		
    7ffa:	8f 46 d4 12 	mov	r6,	4820(r15);0x12d4(r15)
    7ffe:	8f 47 d6 12 	mov	r7,	4822(r15);0x12d6(r15)
    8002:	5d 53       	inc.b	r13		
    8004:	c2 4d 28 13 	mov.b	r13,	&0x1328	
    8008:	d2 43 34 11 	mov.b	#1,	&0x1134	;r3 As==01
    800c:	82 48 f4 11 	mov	r8,	&0x11f4	
    8010:	e2 b3 1c 00 	bit.b	#2,	&0x001c	;r3 As==10
    8014:	bc 20       	jnz	$+378    	;abs 0x818e
    8016:	4e 4c       	mov.b	r12,	r14	
    8018:	6e f3       	and.b	#2,	r14	;r3 As==10
    801a:	5a 43       	mov.b	#1,	r10	;r3 As==01
    801c:	01 20       	jnz	$+4      	;abs 0x8020
    801e:	4a 43       	clr.b	r10		
    8020:	d2 93 c7 11 	cmp.b	#1,	&0x11c7	;r3 As==01
    8024:	b4 20       	jnz	$+362    	;abs 0x818e
    8026:	c2 43 c7 11 	mov.b	#0,	&0x11c7	;r3 As==00
    802a:	5f 43       	mov.b	#1,	r15	;r3 As==01
    802c:	b0 12 7a 46 	call	#0x467a	
    8030:	c2 43 34 11 	mov.b	#0,	&0x1134	;r3 As==00
    8034:	4a 93       	tst.b	r10		
    8036:	ab 20       	jnz	$+344    	;abs 0x818e
    8038:	0f 48       	mov	r8,	r15	
    803a:	1f 82 f4 11 	sub	&0x11f4,r15	
    803e:	3f 90 0a 00 	cmp	#10,	r15	;#0x000a
    8042:	a5 2c       	jc	$+332    	;abs 0x818e
    8044:	5f 42 28 13 	mov.b	&0x1328,r15	
    8048:	4f 93       	tst.b	r15		
    804a:	03 24       	jz	$+8      	;abs 0x8052
    804c:	7f 53       	add.b	#-1,	r15	;r3 As==11
    804e:	c2 4f 28 13 	mov.b	r15,	&0x1328	
    8052:	1f 42 d6 11 	mov	&0x11d6,r15	
    8056:	0f 93       	tst	r15		
    8058:	9a 24       	jz	$+310    	;abs 0x818e
    805a:	cf 43 2d 00 	mov.b	#0,	45(r15)	;r3 As==00, 0x002d(r15)
    805e:	cf 43 31 00 	mov.b	#0,	49(r15)	;r3 As==00, 0x0031(r15)
    8062:	cf 43 30 00 	mov.b	#0,	48(r15)	;r3 As==00, 0x0030(r15)
    8066:	cf 43 2f 00 	mov.b	#0,	47(r15)	;r3 As==00, 0x002f(r15)
    806a:	ff 40 80 ff 2e 00 	mov.b	#-128,	46(r15)	;#0xff80, 0x002e(r15)
    8070:	8e 3c       	jmp	$+286    	;abs 0x818e
    8072:	1f 42 86 01 	mov	&0x0186,r15	
    8076:	8f 10       	swpb	r15		
    8078:	5f f3       	and.b	#1,	r15	;r3 As==01
    807a:	03 24       	jz	$+8      	;abs 0x8082
    807c:	1f 42 96 01 	mov	&0x0196,r15	
    8080:	86 3c       	jmp	$+270    	;abs 0x818e
    8082:	b2 f0 ef ff 86 01 	and	#-17,	&0x0186	;#0xffef
    8088:	82 93 b8 11 	tst	&0x11b8	
    808c:	08 20       	jnz	$+18     	;abs 0x809e
    808e:	82 93 ba 11 	tst	&0x11ba	
    8092:	05 20       	jnz	$+12     	;abs 0x809e
    8094:	5f 42 10 11 	mov.b	&0x1110,r15	
    8098:	b0 12 e0 59 	call	#0x59e0	
    809c:	78 3c       	jmp	$+242    	;abs 0x818e
    809e:	b0 12 da 52 	call	#0x52da	
    80a2:	75 3c       	jmp	$+236    	;abs 0x818e
    80a4:	1f 42 88 01 	mov	&0x0188,r15	
    80a8:	8f 10       	swpb	r15		
    80aa:	5f f3       	and.b	#1,	r15	;r3 As==01
    80ac:	03 24       	jz	$+8      	;abs 0x80b4
    80ae:	1f 42 98 01 	mov	&0x0198,r15	
    80b2:	6d 3c       	jmp	$+220    	;abs 0x818e
    80b4:	b2 f0 ef ff 88 01 	and	#-17,	&0x0188	;#0xffef
    80ba:	82 93 cc 11 	tst	&0x11cc	
    80be:	46 20       	jnz	$+142    	;abs 0x814c
    80c0:	82 93 ce 11 	tst	&0x11ce	
    80c4:	43 20       	jnz	$+136    	;abs 0x814c
    80c6:	1f 42 36 11 	mov	&0x1136,r15	
    80ca:	3f 50 fd ff 	add	#-3,	r15	;#0xfffd
    80ce:	3f 90 06 00 	cmp	#6,	r15	;#0x0006
    80d2:	2f 2c       	jc	$+96     	;abs 0x8132
    80d4:	0f 5f       	rla	r15		
    80d6:	10 4f 40 a0 	br	-24512(r15)	;0xa040(r15)
    80da:	f2 b0 10 00 20 00 	bit.b	#16,	&0x0020	;#0x0010
    80e0:	08 24       	jz	$+18     	;abs 0x80f2
    80e2:	a2 42 36 11 	mov	#4,	&0x1136	;r2 As==10
    80e6:	3e 40 07 00 	mov	#7,	r14	;#0x0007
    80ea:	0f 43       	clr	r15		
    80ec:	b0 12 54 51 	call	#0x5154	
    80f0:	20 3c       	jmp	$+66     	;abs 0x8132
    80f2:	b0 12 98 51 	call	#0x5198	
    80f6:	1d 3c       	jmp	$+60     	;abs 0x8132
    80f8:	7f 40 03 00 	mov.b	#3,	r15	;#0x0003
    80fc:	b0 12 9c 6a 	call	#0x6a9c	
    8100:	4f 93       	tst.b	r15		
    8102:	05 24       	jz	$+12     	;abs 0x810e
    8104:	7f 40 03 00 	mov.b	#3,	r15	;#0x0003
    8108:	b0 12 78 69 	call	#0x6978	
    810c:	12 3c       	jmp	$+38     	;abs 0x8132
    810e:	b0 12 c6 51 	call	#0x51c6	
    8112:	0f 3c       	jmp	$+32     	;abs 0x8132
    8114:	4f 43       	clr.b	r15		
    8116:	0b 3c       	jmp	$+24     	;abs 0x812e
    8118:	7f 40 09 00 	mov.b	#9,	r15	;#0x0009
    811c:	b0 12 f6 4c 	call	#0x4cf6	
    8120:	5f 43       	mov.b	#1,	r15	;r3 As==01
    8122:	b0 12 7a 46 	call	#0x467a	
    8126:	b0 12 1a 50 	call	#0x501a	
    812a:	7f 40 07 00 	mov.b	#7,	r15	;#0x0007
    812e:	b0 12 36 4f 	call	#0x4f36	
    8132:	92 93 48 11 	cmp	#1,	&0x1148	;r3 As==01
    8136:	2b 20       	jnz	$+88     	;abs 0x818e
    8138:	a2 43 48 11 	mov	#2,	&0x1148	;r3 As==10
    813c:	b0 12 b8 67 	call	#0x67b8	
    8140:	b0 12 c8 67 	call	#0x67c8	
    8144:	4f 43       	clr.b	r15		
    8146:	b0 12 78 69 	call	#0x6978	
    814a:	21 3c       	jmp	$+68     	;abs 0x818e
    814c:	b0 12 70 50 	call	#0x5070	
    8150:	1e 3c       	jmp	$+62     	;abs 0x818e
    8152:	1f 42 8a 01 	mov	&0x018a,r15	
    8156:	8f 10       	swpb	r15		
    8158:	5f f3       	and.b	#1,	r15	;r3 As==01
    815a:	19 24       	jz	$+52     	;abs 0x818e
    815c:	1f 42 9a 01 	mov	&0x019a,r15	
    8160:	16 3c       	jmp	$+46     	;abs 0x818e
    8162:	1f 42 8c 01 	mov	&0x018c,r15	
    8166:	8f 10       	swpb	r15		
    8168:	5f f3       	and.b	#1,	r15	;r3 As==01
    816a:	11 24       	jz	$+36     	;abs 0x818e
    816c:	1f 42 9c 01 	mov	&0x019c,r15	
    8170:	0e 3c       	jmp	$+30     	;abs 0x818e
    8172:	1f 42 8e 01 	mov	&0x018e,r15	
    8176:	8f 10       	swpb	r15		
    8178:	5f f3       	and.b	#1,	r15	;r3 As==01
    817a:	09 24       	jz	$+20     	;abs 0x818e
    817c:	1f 42 9e 01 	mov	&0x019e,r15	
    8180:	06 3c       	jmp	$+14     	;abs 0x818e
    8182:	92 53 e0 11 	inc	&0x11e0	
    8186:	92 53 02 12 	inc	&0x1202	
    818a:	82 63 04 12 	adc	&0x1204	
    818e:	35 41       	pop	r5		
    8190:	36 41       	pop	r6		
    8192:	37 41       	pop	r7		
    8194:	38 41       	pop	r8		
    8196:	39 41       	pop	r9		
    8198:	3a 41       	pop	r10		
    819a:	3b 41       	pop	r11		
    819c:	30 41       	ret			

0000819e <sig_TIMERA0_VECTOR>:
    819e:	0f 12       	push	r15		
    81a0:	0e 12       	push	r14		
    81a2:	0d 12       	push	r13		
    81a4:	0c 12       	push	r12		
    81a6:	4f 43       	clr.b	r15		
    81a8:	b0 12 8e 4a 	call	#0x4a8e	
    81ac:	3c 41       	pop	r12		
    81ae:	3d 41       	pop	r13		
    81b0:	3e 41       	pop	r14		
    81b2:	3f 41       	pop	r15		
    81b4:	b1 c0 f0 00 00 00 	bic	#240,	0(r1)	;#0x00f0, 0x0000(r1)
    81ba:	00 13       	reti			

000081bc <sig_TIMERA1_VECTOR>:
    81bc:	0f 12       	push	r15		
    81be:	0e 12       	push	r14		
    81c0:	0d 12       	push	r13		
    81c2:	0c 12       	push	r12		
    81c4:	1f 42 2e 01 	mov	&0x012e,r15	
    81c8:	4f 4f       	mov.b	r15,	r15	
    81ca:	12 c3       	clrc			
    81cc:	4f 10       	rrc.b	r15		
    81ce:	b0 12 8e 4a 	call	#0x4a8e	
    81d2:	3c 41       	pop	r12		
    81d4:	3d 41       	pop	r13		
    81d6:	3e 41       	pop	r14		
    81d8:	3f 41       	pop	r15		
    81da:	b1 c0 f0 00 00 00 	bic	#240,	0(r1)	;#0x00f0, 0x0000(r1)
    81e0:	00 13       	reti			

000081e2 <sig_TIMERB0_VECTOR>:
    81e2:	0f 12       	push	r15		
    81e4:	0e 12       	push	r14		
    81e6:	0d 12       	push	r13		
    81e8:	0c 12       	push	r12		
    81ea:	4f 43       	clr.b	r15		
    81ec:	b0 12 be 7d 	call	#0x7dbe	
    81f0:	3c 41       	pop	r12		
    81f2:	3d 41       	pop	r13		
    81f4:	3e 41       	pop	r14		
    81f6:	3f 41       	pop	r15		
    81f8:	b1 c0 f0 00 00 00 	bic	#240,	0(r1)	;#0x00f0, 0x0000(r1)
    81fe:	00 13       	reti			

00008200 <sig_TIMERB1_VECTOR>:
    8200:	0f 12       	push	r15		
    8202:	0e 12       	push	r14		
    8204:	0d 12       	push	r13		
    8206:	0c 12       	push	r12		
    8208:	1f 42 1e 01 	mov	&0x011e,r15	
    820c:	4f 4f       	mov.b	r15,	r15	
    820e:	12 c3       	clrc			
    8210:	4f 10       	rrc.b	r15		
    8212:	b0 12 be 7d 	call	#0x7dbe	
    8216:	3c 41       	pop	r12		
    8218:	3d 41       	pop	r13		
    821a:	3e 41       	pop	r14		
    821c:	3f 41       	pop	r15		
    821e:	b1 c0 f0 00 00 00 	bic	#240,	0(r1)	;#0x00f0, 0x0000(r1)
    8224:	00 13       	reti			

00008226 <printfflush>:
    8226:	0f 43       	clr	r15		
    8228:	30 41       	ret			

0000822a <sig_UART1RX_VECTOR>:
    822a:	0f 12       	push	r15		
    822c:	0e 12       	push	r14		
    822e:	0d 12       	push	r13		
    8230:	5d 42 7e 00 	mov.b	&0x007e,r13	
    8234:	5f 42 5c 11 	mov.b	&0x115c,r15	
    8238:	4f 93       	tst.b	r15		
    823a:	19 24       	jz	$+52     	;abs 0x826e
    823c:	15 3c       	jmp	$+44     	;abs 0x8268
    823e:	c2 93 20 11 	tst.b	&0x1120	
    8242:	15 20       	jnz	$+44     	;abs 0x826e
    8244:	1e 42 c8 11 	mov	&0x11c8,r14	
    8248:	0e 93       	tst	r14		
    824a:	11 24       	jz	$+36     	;abs 0x826e
    824c:	1f 42 66 12 	mov	&0x1266,r15	
    8250:	0e 5f       	add	r15,	r14	
    8252:	ce 4d 00 00 	mov.b	r13,	0(r14)	;0x0000(r14)
    8256:	1f 53       	inc	r15		
    8258:	82 4f 66 12 	mov	r15,	&0x1266	
    825c:	1f 92 08 12 	cmp	&0x1208,r15	
    8260:	06 28       	jnc	$+14     	;abs 0x826e
    8262:	82 43 c8 11 	mov	#0,	&0x11c8	;r3 As==00
    8266:	03 3c       	jmp	$+8      	;abs 0x826e
    8268:	7f 90 03 00 	cmp.b	#3,	r15	;#0x0003
    826c:	e8 27       	jz	$-46     	;abs 0x823e
    826e:	3d 41       	pop	r13		
    8270:	3e 41       	pop	r14		
    8272:	3f 41       	pop	r15		
    8274:	b1 c0 f0 00 00 00 	bic	#240,	0(r1)	;#0x00f0, 0x0000(r1)
    827a:	00 13       	reti			

0000827c <sig_UART1TX_VECTOR>:
    827c:	0f 12       	push	r15		
    827e:	0e 12       	push	r14		
    8280:	5f 42 5c 11 	mov.b	&0x115c,r15	
    8284:	4f 93       	tst.b	r15		
    8286:	1c 24       	jz	$+58     	;abs 0x82c0
    8288:	18 3c       	jmp	$+50     	;abs 0x82ba
    828a:	c2 93 20 11 	tst.b	&0x1120	
    828e:	18 20       	jnz	$+50     	;abs 0x82c0
    8290:	c2 93 64 11 	tst.b	&0x1164	
    8294:	0f 20       	jnz	$+32     	;abs 0x82b4
    8296:	1f 42 d4 11 	mov	&0x11d4,r15	
    829a:	1f 92 70 12 	cmp	&0x1270,r15	
    829e:	0a 2c       	jc	$+22     	;abs 0x82b4
    82a0:	1e 42 42 13 	mov	&0x1342,r14	
    82a4:	0e 5f       	add	r15,	r14	
    82a6:	6e 4e       	mov.b	@r14,	r14	
    82a8:	1f 53       	inc	r15		
    82aa:	82 4f d4 11 	mov	r15,	&0x11d4	
    82ae:	c2 4e 7f 00 	mov.b	r14,	&0x007f	
    82b2:	06 3c       	jmp	$+14     	;abs 0x82c0
    82b4:	82 43 42 13 	mov	#0,	&0x1342	;r3 As==00
    82b8:	03 3c       	jmp	$+8      	;abs 0x82c0
    82ba:	7f 90 03 00 	cmp.b	#3,	r15	;#0x0003
    82be:	e5 27       	jz	$-52     	;abs 0x828a
    82c0:	3e 41       	pop	r14		
    82c2:	3f 41       	pop	r15		
    82c4:	b1 c0 f0 00 00 00 	bic	#240,	0(r1)	;#0x00f0, 0x0000(r1)
    82ca:	00 13       	reti			

000082cc <putchar>:
    82cc:	0b 12       	push	r11		
    82ce:	0b 4f       	mov	r15,	r11	
    82d0:	b0 12 46 4c 	call	#0x4c46	
    82d4:	4e 4f       	mov.b	r15,	r14	
    82d6:	c2 93 20 11 	tst.b	&0x1120	
    82da:	0f 20       	jnz	$+32     	;abs 0x82fa
    82dc:	f2 90 03 00 5c 11 	cmp.b	#3,	&0x115c	;#0x0003
    82e2:	0b 20       	jnz	$+24     	;abs 0x82fa
    82e4:	b0 12 58 4c 	call	#0x4c58	
    82e8:	f2 f0 df ff 03 00 	and.b	#-33,	&0x0003	;#0xffdf
    82ee:	f2 f0 df ff 01 00 	and.b	#-33,	&0x0001	;#0xffdf
    82f4:	c2 4b 7f 00 	mov.b	r11,	&0x007f	
    82f8:	05 3c       	jmp	$+12     	;abs 0x8304
    82fa:	4f 4e       	mov.b	r14,	r15	
    82fc:	b0 12 58 4c 	call	#0x4c58	
    8300:	3b 43       	mov	#-1,	r11	;r3 As==11
    8302:	12 3c       	jmp	$+38     	;abs 0x8328
    8304:	5f 42 03 00 	mov.b	&0x0003,r15	
    8308:	3f f0 20 00 	and	#32,	r15	;#0x0020
    830c:	fb 27       	jz	$-8      	;abs 0x8304
    830e:	f2 f0 df ff 03 00 	and.b	#-33,	&0x0003	;#0xffdf
    8314:	b0 12 46 4c 	call	#0x4c46	
    8318:	f2 f0 df ff 03 00 	and.b	#-33,	&0x0003	;#0xffdf
    831e:	f2 d0 20 00 01 00 	bis.b	#32,	&0x0001	;#0x0020
    8324:	b0 12 58 4c 	call	#0x4c58	
    8328:	0f 4b       	mov	r11,	r15	
    832a:	3b 41       	pop	r11		
    832c:	30 41       	ret			

0000832e <sig_PORT1_VECTOR>:
    832e:	0f 12       	push	r15		
    8330:	0e 12       	push	r14		
    8332:	0d 12       	push	r13		
    8334:	0c 12       	push	r12		
    8336:	21 83       	decd	r1		
    8338:	5e 42 23 00 	mov.b	&0x0023,r14	
    833c:	5f 42 25 00 	mov.b	&0x0025,r15	
    8340:	4f fe       	and.b	r14,	r15	
    8342:	4f 4f       	mov.b	r15,	r15	
    8344:	81 4f 00 00 	mov	r15,	0(r1)	;0x0000(r1)
    8348:	91 b3 00 00 	bit	#1,	0(r1)	;r3 As==01, 0x0000(r1)
    834c:	0e 24       	jz	$+30     	;abs 0x836a
    834e:	f2 f0 fe ff 23 00 	and.b	#-2,	&0x0023	;#0xfffe
    8354:	92 93 ae 11 	cmp	#1,	&0x11ae	;r3 As==01
    8358:	05 20       	jnz	$+12     	;abs 0x8364
    835a:	a2 43 ae 11 	mov	#2,	&0x11ae	;r3 As==10
    835e:	b0 12 14 6b 	call	#0x6b14	
    8362:	59 3c       	jmp	$+180    	;abs 0x8416
    8364:	d2 53 b5 11 	inc.b	&0x11b5	
    8368:	56 3c       	jmp	$+174    	;abs 0x8416
    836a:	a1 b3 00 00 	bit	#2,	0(r1)	;r3 As==10, 0x0000(r1)
    836e:	05 24       	jz	$+12     	;abs 0x837a
    8370:	5f 42 23 00 	mov.b	&0x0023,r15	
    8374:	7f f0 fd ff 	and.b	#-3,	r15	;#0xfffd
    8378:	4c 3c       	jmp	$+154    	;abs 0x8412
    837a:	a1 b2 00 00 	bit	#4,	0(r1)	;r2 As==10, 0x0000(r1)
    837e:	05 24       	jz	$+12     	;abs 0x838a
    8380:	5f 42 23 00 	mov.b	&0x0023,r15	
    8384:	7f f0 fb ff 	and.b	#-5,	r15	;#0xfffb
    8388:	44 3c       	jmp	$+138    	;abs 0x8412
    838a:	b1 b2 00 00 	bit	#8,	0(r1)	;r2 As==11, 0x0000(r1)
    838e:	05 24       	jz	$+12     	;abs 0x839a
    8390:	5f 42 23 00 	mov.b	&0x0023,r15	
    8394:	7f f0 f7 ff 	and.b	#-9,	r15	;#0xfff7
    8398:	3c 3c       	jmp	$+122    	;abs 0x8412
    839a:	b1 b0 10 00 00 00 	bit	#16,	0(r1)	;#0x0010, 0x0000(r1)
    83a0:	19 24       	jz	$+52     	;abs 0x83d4
    83a2:	f2 f0 ef ff 23 00 	and.b	#-17,	&0x0023	;#0xffef
    83a8:	a2 42 48 11 	mov	#4,	&0x1148	;r2 As==10
    83ac:	f2 f0 ef ff 25 00 	and.b	#-17,	&0x0025	;#0xffef
    83b2:	f2 f0 ef ff 23 00 	and.b	#-17,	&0x0023	;#0xffef
    83b8:	0e 43       	clr	r14		
    83ba:	7f 40 1d 00 	mov.b	#29,	r15	;#0x001d
    83be:	b0 12 66 5b 	call	#0x5b66	
    83c2:	b0 12 22 5c 	call	#0x5c22	
    83c6:	b0 12 50 4f 	call	#0x4f50	
    83ca:	b0 12 26 4d 	call	#0x4d26	
    83ce:	7f 40 0f 00 	mov.b	#15,	r15	;#0x000f
    83d2:	0b 3c       	jmp	$+24     	;abs 0x83ea
    83d4:	b1 b0 20 00 00 00 	bit	#32,	0(r1)	;#0x0020, 0x0000(r1)
    83da:	0a 24       	jz	$+22     	;abs 0x83f0
    83dc:	f2 f0 df ff 23 00 	and.b	#-33,	&0x0023	;#0xffdf
    83e2:	b0 12 74 5c 	call	#0x5c74	
    83e6:	7f 40 03 00 	mov.b	#3,	r15	;#0x0003
    83ea:	b0 12 36 4d 	call	#0x4d36	
    83ee:	13 3c       	jmp	$+40     	;abs 0x8416
    83f0:	b1 b0 40 00 00 00 	bit	#64,	0(r1)	;#0x0040, 0x0000(r1)
    83f6:	05 24       	jz	$+12     	;abs 0x8402
    83f8:	5f 42 23 00 	mov.b	&0x0023,r15	
    83fc:	7f f0 bf ff 	and.b	#-65,	r15	;#0xffbf
    8400:	08 3c       	jmp	$+18     	;abs 0x8412
    8402:	b1 b0 80 00 00 00 	bit	#128,	0(r1)	;#0x0080, 0x0000(r1)
    8408:	06 24       	jz	$+14     	;abs 0x8416
    840a:	5f 42 23 00 	mov.b	&0x0023,r15	
    840e:	7f f0 7f 00 	and.b	#127,	r15	;#0x007f
    8412:	c2 4f 23 00 	mov.b	r15,	&0x0023	
    8416:	21 53       	incd	r1		
    8418:	3c 41       	pop	r12		
    841a:	3d 41       	pop	r13		
    841c:	3e 41       	pop	r14		
    841e:	3f 41       	pop	r15		
    8420:	b1 c0 f0 00 00 00 	bic	#240,	0(r1)	;#0x00f0, 0x0000(r1)
    8426:	00 13       	reti			

00008428 <sig_PORT2_VECTOR>:
    8428:	0f 12       	push	r15		
    842a:	0e 12       	push	r14		
    842c:	21 83       	decd	r1		
    842e:	5e 42 2b 00 	mov.b	&0x002b,r14	
    8432:	5f 42 2d 00 	mov.b	&0x002d,r15	
    8436:	4f fe       	and.b	r14,	r15	
    8438:	4f 4f       	mov.b	r15,	r15	
    843a:	81 4f 00 00 	mov	r15,	0(r1)	;0x0000(r1)
    843e:	91 b3 00 00 	bit	#1,	0(r1)	;r3 As==01, 0x0000(r1)
    8442:	05 24       	jz	$+12     	;abs 0x844e
    8444:	5f 42 2b 00 	mov.b	&0x002b,r15	
    8448:	7f f0 fe ff 	and.b	#-2,	r15	;#0xfffe
    844c:	3b 3c       	jmp	$+120    	;abs 0x84c4
    844e:	a1 b3 00 00 	bit	#2,	0(r1)	;r3 As==10, 0x0000(r1)
    8452:	05 24       	jz	$+12     	;abs 0x845e
    8454:	5f 42 2b 00 	mov.b	&0x002b,r15	
    8458:	7f f0 fd ff 	and.b	#-3,	r15	;#0xfffd
    845c:	33 3c       	jmp	$+104    	;abs 0x84c4
    845e:	a1 b2 00 00 	bit	#4,	0(r1)	;r2 As==10, 0x0000(r1)
    8462:	05 24       	jz	$+12     	;abs 0x846e
    8464:	5f 42 2b 00 	mov.b	&0x002b,r15	
    8468:	7f f0 fb ff 	and.b	#-5,	r15	;#0xfffb
    846c:	2b 3c       	jmp	$+88     	;abs 0x84c4
    846e:	b1 b2 00 00 	bit	#8,	0(r1)	;r2 As==11, 0x0000(r1)
    8472:	05 24       	jz	$+12     	;abs 0x847e
    8474:	5f 42 2b 00 	mov.b	&0x002b,r15	
    8478:	7f f0 f7 ff 	and.b	#-9,	r15	;#0xfff7
    847c:	23 3c       	jmp	$+72     	;abs 0x84c4
    847e:	b1 b0 10 00 00 00 	bit	#16,	0(r1)	;#0x0010, 0x0000(r1)
    8484:	05 24       	jz	$+12     	;abs 0x8490
    8486:	5f 42 2b 00 	mov.b	&0x002b,r15	
    848a:	7f f0 ef ff 	and.b	#-17,	r15	;#0xffef
    848e:	1a 3c       	jmp	$+54     	;abs 0x84c4
    8490:	b1 b0 20 00 00 00 	bit	#32,	0(r1)	;#0x0020, 0x0000(r1)
    8496:	05 24       	jz	$+12     	;abs 0x84a2
    8498:	5f 42 2b 00 	mov.b	&0x002b,r15	
    849c:	7f f0 df ff 	and.b	#-33,	r15	;#0xffdf
    84a0:	11 3c       	jmp	$+36     	;abs 0x84c4
    84a2:	b1 b0 40 00 00 00 	bit	#64,	0(r1)	;#0x0040, 0x0000(r1)
    84a8:	05 24       	jz	$+12     	;abs 0x84b4
    84aa:	5f 42 2b 00 	mov.b	&0x002b,r15	
    84ae:	7f f0 bf ff 	and.b	#-65,	r15	;#0xffbf
    84b2:	08 3c       	jmp	$+18     	;abs 0x84c4
    84b4:	b1 b0 80 00 00 00 	bit	#128,	0(r1)	;#0x0080, 0x0000(r1)
    84ba:	06 24       	jz	$+14     	;abs 0x84c8
    84bc:	5f 42 2b 00 	mov.b	&0x002b,r15	
    84c0:	7f f0 7f 00 	and.b	#127,	r15	;#0x007f
    84c4:	c2 4f 2b 00 	mov.b	r15,	&0x002b	
    84c8:	21 53       	incd	r1		
    84ca:	3e 41       	pop	r14		
    84cc:	3f 41       	pop	r15		
    84ce:	b1 c0 f0 00 00 00 	bic	#240,	0(r1)	;#0x00f0, 0x0000(r1)
    84d4:	00 13       	reti			

000084d6 <sig_ADC12_VECTOR>:
    84d6:	0f 12       	push	r15		
    84d8:	0e 12       	push	r14		
    84da:	0d 12       	push	r13		
    84dc:	0c 12       	push	r12		
    84de:	0b 12       	push	r11		
    84e0:	1f 42 a8 01 	mov	&0x01a8,r15	
    84e4:	3f 90 05 00 	cmp	#5,	r15	;#0x0005
    84e8:	0a 2c       	jc	$+22     	;abs 0x84fe
    84ea:	b0 12 ea 45 	call	#0x45ea	
    84ee:	1e 42 a6 01 	mov	&0x01a6,r14	
    84f2:	0e 93       	tst	r14		
    84f4:	9b 24       	jz	$+312    	;abs 0x862c
    84f6:	3f f0 80 00 	and	#128,	r15	;#0x0080
    84fa:	5e 43       	mov.b	#1,	r14	;r3 As==01
    84fc:	01 24       	jz	$+4      	;abs 0x8500
    84fe:	4e 43       	clr.b	r14		
    8500:	5f 42 fe 11 	mov.b	&0x11fe,r15	
    8504:	3f f0 1f 00 	and	#31,	r15	;#0x001f
    8508:	3f 53       	add	#-1,	r15	;r3 As==11
    850a:	3f 90 10 00 	cmp	#16,	r15	;#0x0010
    850e:	8c 2c       	jc	$+282    	;abs 0x8628
    8510:	0f 5f       	rla	r15		
    8512:	10 4f 4c a0 	br	-24500(r15)	;0xa04c(r15)
    8516:	b0 12 18 49 	call	#0x4918	
    851a:	1e 42 40 01 	mov	&0x0140,r14	
    851e:	5f 42 80 11 	mov.b	&0x1180,r15	
    8522:	b0 12 64 56 	call	#0x5664	
    8526:	82 3c       	jmp	$+262    	;abs 0x862c
    8528:	1e 42 40 01 	mov	&0x0140,r14	
    852c:	5f 42 80 11 	mov.b	&0x1180,r15	
    8530:	b0 12 64 56 	call	#0x5664	
    8534:	4f 93       	tst.b	r15		
    8536:	7a 24       	jz	$+246    	;abs 0x862c
    8538:	77 3c       	jmp	$+240    	;abs 0x8628
    853a:	1f 42 82 11 	mov	&0x1182,r15	
    853e:	0f 5f       	rla	r15		
    8540:	1c 42 f6 11 	mov	&0x11f6,r12	
    8544:	0c 5f       	add	r15,	r12	
    8546:	5b 42 b6 11 	mov.b	&0x11b6,r11	
    854a:	0d 43       	clr	r13		
    854c:	4f 4d       	mov.b	r13,	r15	
    854e:	0f 5f       	rla	r15		
    8550:	3f 50 40 01 	add	#320,	r15	;#0x0140
    8554:	ac 4f 00 00 	mov	@r15,	0(r12)	;0x0000(r12)
    8558:	2c 53       	incd	r12		
    855a:	1d 53       	inc	r13		
    855c:	0d 9b       	cmp	r11,	r13	
    855e:	f6 2b       	jnc	$-18     	;abs 0x854c
    8560:	1b 52 82 11 	add	&0x1182,r11	
    8564:	82 4b 82 11 	mov	r11,	&0x1182	
    8568:	4e 93       	tst.b	r14		
    856a:	03 20       	jnz	$+8      	;abs 0x8572
    856c:	82 9b 8c 11 	cmp	r11,	&0x118c	
    8570:	5d 20       	jnz	$+188    	;abs 0x862c
    8572:	b0 12 18 49 	call	#0x4918	
    8576:	82 43 82 11 	mov	#0,	&0x1182	;r3 As==00
    857a:	58 3c       	jmp	$+178    	;abs 0x862c
    857c:	1d 42 82 11 	mov	&0x1182,r13	
    8580:	0f 4d       	mov	r13,	r15	
    8582:	0f 5f       	rla	r15		
    8584:	1b 42 f6 11 	mov	&0x11f6,r11	
    8588:	0b 5f       	add	r15,	r11	
    858a:	1f 42 8c 11 	mov	&0x118c,r15	
    858e:	0f 8d       	sub	r13,	r15	
    8590:	0d 4f       	mov	r15,	r13	
    8592:	3f 90 11 00 	cmp	#17,	r15	;#0x0011
    8596:	02 28       	jnc	$+6      	;abs 0x859c
    8598:	3d 40 10 00 	mov	#16,	r13	;#0x0010
    859c:	0c 43       	clr	r12		
    859e:	4f 4c       	mov.b	r12,	r15	
    85a0:	0f 5f       	rla	r15		
    85a2:	3f 50 40 01 	add	#320,	r15	;#0x0140
    85a6:	ab 4f 00 00 	mov	@r15,	0(r11)	;0x0000(r11)
    85aa:	2b 53       	incd	r11		
    85ac:	1c 53       	inc	r12		
    85ae:	0c 9d       	cmp	r13,	r12	
    85b0:	f6 2b       	jnc	$-18     	;abs 0x859e
    85b2:	1d 52 82 11 	add	&0x1182,r13	
    85b6:	82 4d 82 11 	mov	r13,	&0x1182	
    85ba:	4e 93       	tst.b	r14		
    85bc:	04 20       	jnz	$+10     	;abs 0x85c6
    85be:	1f 42 8c 11 	mov	&0x118c,r15	
    85c2:	0f 9d       	cmp	r13,	r15	
    85c4:	09 20       	jnz	$+20     	;abs 0x85d8
    85c6:	b0 12 18 49 	call	#0x4918	
    85ca:	82 43 82 11 	mov	#0,	&0x1182	;r3 As==00
    85ce:	5f 42 80 11 	mov.b	&0x1180,r15	
    85d2:	b0 12 4a 5b 	call	#0x5b4a	
    85d6:	2a 3c       	jmp	$+86     	;abs 0x862c
    85d8:	0f 8d       	sub	r13,	r15	
    85da:	3f 90 10 00 	cmp	#16,	r15	;#0x0010
    85de:	26 2c       	jc	$+78     	;abs 0x862c
    85e0:	4f 43       	clr.b	r15		
    85e2:	b0 12 5e 46 	call	#0x465e	
    85e6:	4e 4f       	mov.b	r15,	r14	
    85e8:	7e d0 80 ff 	bis.b	#-128,	r14	;#0xff80
    85ec:	5f 42 8c 11 	mov.b	&0x118c,r15	
    85f0:	5f 82 82 11 	sub.b	&0x1182,r15	
    85f4:	b0 12 50 46 	call	#0x4650	
    85f8:	19 3c       	jmp	$+52     	;abs 0x862c
    85fa:	1d 42 f6 11 	mov	&0x11f6,r13	
    85fe:	4e 43       	clr.b	r14		
    8600:	4f 4e       	mov.b	r14,	r15	
    8602:	0f 5f       	rla	r15		
    8604:	3f 50 40 01 	add	#320,	r15	;#0x0140
    8608:	ad 4f 00 00 	mov	@r15,	0(r13)	;0x0000(r13)
    860c:	2d 53       	incd	r13		
    860e:	5e 53       	inc.b	r14		
    8610:	4f 4e       	mov.b	r14,	r15	
    8612:	1f 92 8c 11 	cmp	&0x118c,r15	
    8616:	f4 2b       	jnc	$-22     	;abs 0x8600
    8618:	5f 42 80 11 	mov.b	&0x1180,r15	
    861c:	b0 12 4a 5b 	call	#0x5b4a	
    8620:	82 4f f6 11 	mov	r15,	&0x11f6	
    8624:	0f 93       	tst	r15		
    8626:	02 20       	jnz	$+6      	;abs 0x862c
    8628:	b0 12 18 49 	call	#0x4918	
    862c:	3b 41       	pop	r11		
    862e:	3c 41       	pop	r12		
    8630:	3d 41       	pop	r13		
    8632:	3e 41       	pop	r14		
    8634:	3f 41       	pop	r15		
    8636:	b1 c0 f0 00 00 00 	bic	#240,	0(r1)	;#0x00f0, 0x0000(r1)
    863c:	00 13       	reti			

0000863e <sig_UART0RX_VECTOR>:
    863e:	0f 12       	push	r15		
    8640:	0e 12       	push	r14		
    8642:	0d 12       	push	r13		
    8644:	0c 12       	push	r12		
    8646:	5e 42 76 00 	mov.b	&0x0076,r14	
    864a:	5f 42 44 11 	mov.b	&0x1144,r15	
    864e:	4f 93       	tst.b	r15		
    8650:	1c 24       	jz	$+58     	;abs 0x868a
    8652:	18 3c       	jmp	$+50     	;abs 0x8684
    8654:	c2 93 08 11 	tst.b	&0x1108	
    8658:	18 20       	jnz	$+50     	;abs 0x868a
    865a:	1f 42 6c 12 	mov	&0x126c,r15	
    865e:	0f 93       	tst	r15		
    8660:	04 24       	jz	$+10     	;abs 0x866a
    8662:	1f 52 2e 13 	add	&0x132e,r15	
    8666:	cf 4e ff ff 	mov.b	r14,	-1(r15)	;0xffff(r15)
    866a:	92 92 32 13 2e 13 	cmp	&0x1332,&0x132e	
    8670:	03 2c       	jc	$+8      	;abs 0x8678
    8672:	b0 12 60 4c 	call	#0x4c60	
    8676:	09 3c       	jmp	$+20     	;abs 0x868a
    8678:	f2 f0 bf ff 00 00 	and.b	#-65,	&0x0000	;#0xffbf
    867e:	b0 12 b0 6b 	call	#0x6bb0	
    8682:	03 3c       	jmp	$+8      	;abs 0x868a
    8684:	7f 90 03 00 	cmp.b	#3,	r15	;#0x0003
    8688:	e5 27       	jz	$-52     	;abs 0x8654
    868a:	3c 41       	pop	r12		
    868c:	3d 41       	pop	r13		
    868e:	3e 41       	pop	r14		
    8690:	3f 41       	pop	r15		
    8692:	b1 c0 f0 00 00 00 	bic	#240,	0(r1)	;#0x00f0, 0x0000(r1)
    8698:	00 13       	reti			

0000869a <sig_UART0TX_VECTOR>:
    869a:	0f 12       	push	r15		
    869c:	5f 42 70 00 	mov.b	&0x0070,r15	
    86a0:	3f f0 20 00 	and	#32,	r15	;#0x0020
    86a4:	06 24       	jz	$+14     	;abs 0x86b2
    86a6:	5f 42 70 00 	mov.b	&0x0070,r15	
    86aa:	2f f2       	and	#4,	r15	;r2 As==10
    86ac:	02 24       	jz	$+6      	;abs 0x86b2
    86ae:	5f 42 70 00 	mov.b	&0x0070,r15	
    86b2:	3f 41       	pop	r15		
    86b4:	b1 c0 f0 00 00 00 	bic	#240,	0(r1)	;#0x00f0, 0x0000(r1)
    86ba:	00 13       	reti			

000086bc <__umulsidi3>:
    86bc:	0b 12       	push	r11		
    86be:	0a 12       	push	r10		
    86c0:	09 12       	push	r9		
    86c2:	08 12       	push	r8		
    86c4:	07 12       	push	r7		
    86c6:	06 12       	push	r6		
    86c8:	05 12       	push	r5		
    86ca:	04 12       	push	r4		
    86cc:	08 4c       	mov	r12,	r8	
    86ce:	09 4d       	mov	r13,	r9	
    86d0:	0a 43       	clr	r10		
    86d2:	0b 43       	clr	r11		
    86d4:	0c 4e       	mov	r14,	r12	
    86d6:	0d 4f       	mov	r15,	r13	
    86d8:	0e 43       	clr	r14		
    86da:	0f 43       	clr	r15		
    86dc:	b0 12 28 87 	call	#0x8728	
    86e0:	34 41       	pop	r4		
    86e2:	35 41       	pop	r5		
    86e4:	36 41       	pop	r6		
    86e6:	37 41       	pop	r7		
    86e8:	38 41       	pop	r8		
    86ea:	39 41       	pop	r9		
    86ec:	3a 41       	pop	r10		
    86ee:	3b 41       	pop	r11		
    86f0:	30 41       	ret			

000086f2 <__muldi3>:
    86f2:	0b 12       	push	r11		
    86f4:	0a 12       	push	r10		
    86f6:	09 12       	push	r9		
    86f8:	08 12       	push	r8		
    86fa:	07 12       	push	r7		
    86fc:	06 12       	push	r6		
    86fe:	05 12       	push	r5		
    8700:	04 12       	push	r4		
    8702:	18 41 12 00 	mov	18(r1),	r8	;0x0012(r1)
    8706:	19 41 14 00 	mov	20(r1),	r9	;0x0014(r1)
    870a:	1a 41 16 00 	mov	22(r1),	r10	;0x0016(r1)
    870e:	1b 41 18 00 	mov	24(r1),	r11	;0x0018(r1)
    8712:	b0 12 28 87 	call	#0x8728	
    8716:	34 41       	pop	r4		
    8718:	35 41       	pop	r5		
    871a:	36 41       	pop	r6		
    871c:	37 41       	pop	r7		
    871e:	38 41       	pop	r8		
    8720:	39 41       	pop	r9		
    8722:	3a 41       	pop	r10		
    8724:	3b 41       	pop	r11		
    8726:	30 41       	ret			

00008728 <__xabi_muldi3>:
    8728:	04 43       	clr	r4		
    872a:	05 43       	clr	r5		
    872c:	06 43       	clr	r6		
    872e:	07 43       	clr	r7		
    8730:	0e 3c       	jmp	$+30     	;abs 0x874e
    8732:	12 c3       	clrc			
    8734:	0b 10       	rrc	r11		
    8736:	0a 10       	rrc	r10		
    8738:	09 10       	rrc	r9		
    873a:	08 10       	rrc	r8		
    873c:	04 28       	jnc	$+10     	;abs 0x8746
    873e:	04 5c       	add	r12,	r4	
    8740:	05 6d       	addc	r13,	r5	
    8742:	06 6e       	addc	r14,	r6	
    8744:	07 6f       	addc	r15,	r7	
    8746:	0c 5c       	rla	r12		
    8748:	0d 6d       	rlc	r13		
    874a:	0e 6e       	rlc	r14		
    874c:	0f 6f       	rlc	r15		
    874e:	08 93       	tst	r8		
    8750:	f0 23       	jnz	$-30     	;abs 0x8732
    8752:	09 93       	tst	r9		
    8754:	ee 23       	jnz	$-34     	;abs 0x8732
    8756:	0a 93       	tst	r10		
    8758:	ec 23       	jnz	$-38     	;abs 0x8732
    875a:	0b 93       	tst	r11		
    875c:	ea 23       	jnz	$-42     	;abs 0x8732
    875e:	0c 44       	mov	r4,	r12	
    8760:	0d 45       	mov	r5,	r13	
    8762:	0e 46       	mov	r6,	r14	
    8764:	0f 47       	mov	r7,	r15	
    8766:	30 41       	ret			

00008768 <__udivhi3>:
    8768:	7c 40 10 00 	mov.b	#16,	r12	;#0x0010
    876c:	0d 4e       	mov	r14,	r13	
    876e:	0e 43       	clr	r14		
    8770:	0f 5f       	rla	r15		
    8772:	0e 6e       	rlc	r14		
    8774:	0e 9d       	cmp	r13,	r14	
    8776:	02 28       	jnc	$+6      	;abs 0x877c
    8778:	0e 8d       	sub	r13,	r14	
    877a:	1f d3       	bis	#1,	r15	;r3 As==01
    877c:	1c 83       	dec	r12		
    877e:	f8 23       	jnz	$-14     	;abs 0x8770
    8780:	30 41       	ret			

00008782 <__umodhi3>:
    8782:	b0 12 68 87 	call	#0x8768	
    8786:	0f 4e       	mov	r14,	r15	
    8788:	30 41       	ret			

0000878a <__udivsi3>:
    878a:	0b 12       	push	r11		
    878c:	0a 12       	push	r10		
    878e:	09 12       	push	r9		
    8790:	79 40 20 00 	mov.b	#32,	r9	;#0x0020
    8794:	0a 4c       	mov	r12,	r10	
    8796:	0b 4d       	mov	r13,	r11	
    8798:	0c 43       	clr	r12		
    879a:	0d 43       	clr	r13		
    879c:	0e 5e       	rla	r14		
    879e:	0f 6f       	rlc	r15		
    87a0:	0c 6c       	rlc	r12		
    87a2:	0d 6d       	rlc	r13		
    87a4:	0d 9b       	cmp	r11,	r13	
    87a6:	06 28       	jnc	$+14     	;abs 0x87b4
    87a8:	02 20       	jnz	$+6      	;abs 0x87ae
    87aa:	0c 9a       	cmp	r10,	r12	
    87ac:	03 28       	jnc	$+8      	;abs 0x87b4
    87ae:	0c 8a       	sub	r10,	r12	
    87b0:	0d 7b       	subc	r11,	r13	
    87b2:	1e d3       	bis	#1,	r14	;r3 As==01
    87b4:	19 83       	dec	r9		
    87b6:	f2 23       	jnz	$-26     	;abs 0x879c
    87b8:	39 41       	pop	r9		
    87ba:	3a 41       	pop	r10		
    87bc:	3b 41       	pop	r11		
    87be:	30 41       	ret			

000087c0 <__umodsi3>:
    87c0:	b0 12 8a 87 	call	#0x878a	
    87c4:	0e 4c       	mov	r12,	r14	
    87c6:	0f 4d       	mov	r13,	r15	
    87c8:	30 41       	ret			

000087ca <__fixunssfsi>:
    87ca:	0b 12       	push	r11		
    87cc:	0a 12       	push	r10		
    87ce:	0a 4e       	mov	r14,	r10	
    87d0:	0b 4f       	mov	r15,	r11	
    87d2:	0c 43       	clr	r12		
    87d4:	3d 40 00 4f 	mov	#20224,	r13	;#0x4f00
    87d8:	b0 12 5e 8d 	call	#0x8d5e	
    87dc:	0f 93       	tst	r15		
    87de:	07 34       	jge	$+16     	;abs 0x87ee
    87e0:	0e 4a       	mov	r10,	r14	
    87e2:	0f 4b       	mov	r11,	r15	
    87e4:	b0 12 fe 8d 	call	#0x8dfe	
    87e8:	3a 41       	pop	r10		
    87ea:	3b 41       	pop	r11		
    87ec:	30 41       	ret			
    87ee:	0c 43       	clr	r12		
    87f0:	3d 40 00 4f 	mov	#20224,	r13	;#0x4f00
    87f4:	0e 4a       	mov	r10,	r14	
    87f6:	0f 4b       	mov	r11,	r15	
    87f8:	b0 12 ea 8a 	call	#0x8aea	
    87fc:	b0 12 fe 8d 	call	#0x8dfe	
    8800:	0e 53       	add	#0,	r14	;r3 As==00
    8802:	3f 60 00 80 	addc	#-32768,r15	;#0x8000
    8806:	3a 41       	pop	r10		
    8808:	3b 41       	pop	r11		
    880a:	30 41       	ret			

0000880c <_fpadd_parts>:
    880c:	0b 12       	push	r11		
    880e:	0a 12       	push	r10		
    8810:	09 12       	push	r9		
    8812:	08 12       	push	r8		
    8814:	07 12       	push	r7		
    8816:	06 12       	push	r6		
    8818:	05 12       	push	r5		
    881a:	04 12       	push	r4		
    881c:	31 50 fa ff 	add	#-6,	r1	;#0xfffa
    8820:	08 4d       	mov	r13,	r8	
    8822:	6b 4f       	mov.b	@r15,	r11	
    8824:	6b 93       	cmp.b	#2,	r11	;r3 As==10
    8826:	67 28       	jnc	$+208    	;abs 0x88f6
    8828:	6c 4e       	mov.b	@r14,	r12	
    882a:	6c 93       	cmp.b	#2,	r12	;r3 As==10
    882c:	e9 28       	jnc	$+468    	;abs 0x8a00
    882e:	6b 92       	cmp.b	#4,	r11	;r2 As==10
    8830:	02 20       	jnz	$+6      	;abs 0x8836
    8832:	30 40 8c 8a 	br	#0x8a8c	
    8836:	6c 92       	cmp.b	#4,	r12	;r2 As==10
    8838:	e3 24       	jz	$+456    	;abs 0x8a00
    883a:	6c 93       	cmp.b	#2,	r12	;r3 As==10
    883c:	bb 24       	jz	$+376    	;abs 0x89b4
    883e:	6b 93       	cmp.b	#2,	r11	;r3 As==10
    8840:	df 24       	jz	$+448    	;abs 0x8a00
    8842:	91 4f 02 00 00 00 	mov	2(r15),	0(r1)	;0x0002(r15), 0x0000(r1)
    8848:	1b 4e 02 00 	mov	2(r14),	r11	;0x0002(r14)
    884c:	14 4f 04 00 	mov	4(r15),	r4	;0x0004(r15)
    8850:	15 4f 06 00 	mov	6(r15),	r5	;0x0006(r15)
    8854:	16 4e 04 00 	mov	4(r14),	r6	;0x0004(r14)
    8858:	17 4e 06 00 	mov	6(r14),	r7	;0x0006(r14)
    885c:	2c 41       	mov	@r1,	r12	
    885e:	0c 8b       	sub	r11,	r12	
    8860:	09 4c       	mov	r12,	r9	
    8862:	0c 93       	tst	r12		
    8864:	bf 38       	jl	$+384    	;abs 0x89e4
    8866:	39 90 20 00 	cmp	#32,	r9	;#0x0020
    886a:	50 34       	jge	$+162    	;abs 0x890c
    886c:	1c 93       	cmp	#1,	r12	;r3 As==01
    886e:	d7 38       	jl	$+432    	;abs 0x8a1e
    8870:	81 46 02 00 	mov	r6,	2(r1)	;0x0002(r1)
    8874:	81 47 04 00 	mov	r7,	4(r1)	;0x0004(r1)
    8878:	4c 49       	mov.b	r9,	r12	
    887a:	7c f0 1f 00 	and.b	#31,	r12	;#0x001f
    887e:	0b 24       	jz	$+24     	;abs 0x8896
    8880:	0a 46       	mov	r6,	r10	
    8882:	0b 47       	mov	r7,	r11	
    8884:	12 c3       	clrc			
    8886:	0b 10       	rrc	r11		
    8888:	0a 10       	rrc	r10		
    888a:	7c 53       	add.b	#-1,	r12	;r3 As==11
    888c:	fb 23       	jnz	$-8      	;abs 0x8884
    888e:	81 4a 02 00 	mov	r10,	2(r1)	;0x0002(r1)
    8892:	81 4b 04 00 	mov	r11,	4(r1)	;0x0004(r1)
    8896:	1c 43       	mov	#1,	r12	;r3 As==01
    8898:	0d 43       	clr	r13		
    889a:	79 f0 1f 00 	and.b	#31,	r9	;#0x001f
    889e:	04 24       	jz	$+10     	;abs 0x88a8
    88a0:	0c 5c       	rla	r12		
    88a2:	0d 6d       	rlc	r13		
    88a4:	79 53       	add.b	#-1,	r9	;r3 As==11
    88a6:	fc 23       	jnz	$-6      	;abs 0x88a0
    88a8:	3c 53       	add	#-1,	r12	;r3 As==11
    88aa:	3d 63       	addc	#-1,	r13	;r3 As==11
    88ac:	0c f6       	and	r6,	r12	
    88ae:	0d f7       	and	r7,	r13	
    88b0:	1a 43       	mov	#1,	r10	;r3 As==01
    88b2:	0b 43       	clr	r11		
    88b4:	0c 93       	tst	r12		
    88b6:	02 20       	jnz	$+6      	;abs 0x88bc
    88b8:	0d 93       	tst	r13		
    88ba:	e5 24       	jz	$+460    	;abs 0x8a86
    88bc:	16 41 02 00 	mov	2(r1),	r6	;0x0002(r1)
    88c0:	17 41 04 00 	mov	4(r1),	r7	;0x0004(r1)
    88c4:	06 da       	bis	r10,	r6	
    88c6:	07 db       	bis	r11,	r7	
    88c8:	5f 4f 01 00 	mov.b	1(r15),	r15	;0x0001(r15)
    88cc:	5f 9e 01 00 	cmp.b	1(r14),	r15	;0x0001(r14)
    88d0:	28 20       	jnz	$+82     	;abs 0x8922
    88d2:	c8 4f 01 00 	mov.b	r15,	1(r8)	;0x0001(r8)
    88d6:	a8 41 02 00 	mov	@r1,	2(r8)	;0x0002(r8)
    88da:	0e 46       	mov	r6,	r14	
    88dc:	0f 47       	mov	r7,	r15	
    88de:	0e 54       	add	r4,	r14	
    88e0:	0f 65       	addc	r5,	r15	
    88e2:	88 4e 04 00 	mov	r14,	4(r8)	;0x0004(r8)
    88e6:	88 4f 06 00 	mov	r15,	6(r8)	;0x0006(r8)
    88ea:	f8 40 03 00 00 00 	mov.b	#3,	0(r8)	;#0x0003, 0x0000(r8)
    88f0:	0f 93       	tst	r15		
    88f2:	4d 38       	jl	$+156    	;abs 0x898e
    88f4:	0f 48       	mov	r8,	r15	
    88f6:	31 50 06 00 	add	#6,	r1	;#0x0006
    88fa:	34 41       	pop	r4		
    88fc:	35 41       	pop	r5		
    88fe:	36 41       	pop	r6		
    8900:	37 41       	pop	r7		
    8902:	38 41       	pop	r8		
    8904:	39 41       	pop	r9		
    8906:	3a 41       	pop	r10		
    8908:	3b 41       	pop	r11		
    890a:	30 41       	ret			
    890c:	2b 91       	cmp	@r1,	r11	
    890e:	67 38       	jl	$+208    	;abs 0x89de
    8910:	81 4b 00 00 	mov	r11,	0(r1)	;0x0000(r1)
    8914:	04 43       	clr	r4		
    8916:	05 43       	clr	r5		
    8918:	5f 4f 01 00 	mov.b	1(r15),	r15	;0x0001(r15)
    891c:	5f 9e 01 00 	cmp.b	1(r14),	r15	;0x0001(r14)
    8920:	d8 27       	jz	$-78     	;abs 0x88d2
    8922:	4f 93       	tst.b	r15		
    8924:	68 24       	jz	$+210    	;abs 0x89f6
    8926:	0e 46       	mov	r6,	r14	
    8928:	0f 47       	mov	r7,	r15	
    892a:	0e 84       	sub	r4,	r14	
    892c:	0f 75       	subc	r5,	r15	
    892e:	0f 93       	tst	r15		
    8930:	69 38       	jl	$+212    	;abs 0x8a04
    8932:	c8 43 01 00 	mov.b	#0,	1(r8)	;r3 As==00, 0x0001(r8)
    8936:	a8 41 02 00 	mov	@r1,	2(r8)	;0x0002(r8)
    893a:	88 4e 04 00 	mov	r14,	4(r8)	;0x0004(r8)
    893e:	88 4f 06 00 	mov	r15,	6(r8)	;0x0006(r8)
    8942:	0c 4e       	mov	r14,	r12	
    8944:	0d 4f       	mov	r15,	r13	
    8946:	3c 53       	add	#-1,	r12	;r3 As==11
    8948:	3d 63       	addc	#-1,	r13	;r3 As==11
    894a:	3d 90 ff 3f 	cmp	#16383,	r13	;#0x3fff
    894e:	05 28       	jnc	$+12     	;abs 0x895a
    8950:	3d 90 00 40 	cmp	#16384,	r13	;#0x4000
    8954:	17 2c       	jc	$+48     	;abs 0x8984
    8956:	3c 93       	cmp	#-1,	r12	;r3 As==11
    8958:	15 2c       	jc	$+44     	;abs 0x8984
    895a:	1b 48 02 00 	mov	2(r8),	r11	;0x0002(r8)
    895e:	3b 53       	add	#-1,	r11	;r3 As==11
    8960:	0e 5e       	rla	r14		
    8962:	0f 6f       	rlc	r15		
    8964:	0a 4b       	mov	r11,	r10	
    8966:	3b 53       	add	#-1,	r11	;r3 As==11
    8968:	0c 4e       	mov	r14,	r12	
    896a:	0d 4f       	mov	r15,	r13	
    896c:	3c 53       	add	#-1,	r12	;r3 As==11
    896e:	3d 63       	addc	#-1,	r13	;r3 As==11
    8970:	3d 90 ff 3f 	cmp	#16383,	r13	;#0x3fff
    8974:	f5 2b       	jnc	$-20     	;abs 0x8960
    8976:	3c 24       	jz	$+122    	;abs 0x89f0
    8978:	88 4e 04 00 	mov	r14,	4(r8)	;0x0004(r8)
    897c:	88 4f 06 00 	mov	r15,	6(r8)	;0x0006(r8)
    8980:	88 4a 02 00 	mov	r10,	2(r8)	;0x0002(r8)
    8984:	f8 40 03 00 00 00 	mov.b	#3,	0(r8)	;#0x0003, 0x0000(r8)
    898a:	0f 93       	tst	r15		
    898c:	b3 37       	jge	$-152    	;abs 0x88f4
    898e:	0c 4e       	mov	r14,	r12	
    8990:	0d 4f       	mov	r15,	r13	
    8992:	1c f3       	and	#1,	r12	;r3 As==01
    8994:	0d f3       	and	#0,	r13	;r3 As==00
    8996:	12 c3       	clrc			
    8998:	0f 10       	rrc	r15		
    899a:	0e 10       	rrc	r14		
    899c:	0a 4c       	mov	r12,	r10	
    899e:	0b 4d       	mov	r13,	r11	
    89a0:	0a de       	bis	r14,	r10	
    89a2:	0b df       	bis	r15,	r11	
    89a4:	88 4a 04 00 	mov	r10,	4(r8)	;0x0004(r8)
    89a8:	88 4b 06 00 	mov	r11,	6(r8)	;0x0006(r8)
    89ac:	98 53 02 00 	inc	2(r8)		;0x0002(r8)
    89b0:	0f 48       	mov	r8,	r15	
    89b2:	a1 3f       	jmp	$-188    	;abs 0x88f6
    89b4:	6b 93       	cmp.b	#2,	r11	;r3 As==10
    89b6:	9f 23       	jnz	$-192    	;abs 0x88f6
    89b8:	ad 4f 00 00 	mov	@r15,	0(r13)	;0x0000(r13)
    89bc:	9d 4f 02 00 02 00 	mov	2(r15),	2(r13)	;0x0002(r15), 0x0002(r13)
    89c2:	9d 4f 04 00 04 00 	mov	4(r15),	4(r13)	;0x0004(r15), 0x0004(r13)
    89c8:	9d 4f 06 00 06 00 	mov	6(r15),	6(r13)	;0x0006(r15), 0x0006(r13)
    89ce:	5e 4e 01 00 	mov.b	1(r14),	r14	;0x0001(r14)
    89d2:	5e ff 01 00 	and.b	1(r15),	r14	;0x0001(r15)
    89d6:	cd 4e 01 00 	mov.b	r14,	1(r13)	;0x0001(r13)
    89da:	0f 4d       	mov	r13,	r15	
    89dc:	8c 3f       	jmp	$-230    	;abs 0x88f6
    89de:	06 43       	clr	r6		
    89e0:	07 43       	clr	r7		
    89e2:	9a 3f       	jmp	$-202    	;abs 0x8918
    89e4:	39 e3       	inv	r9		
    89e6:	19 53       	inc	r9		
    89e8:	39 90 20 00 	cmp	#32,	r9	;#0x0020
    89ec:	8f 37       	jge	$-224    	;abs 0x890c
    89ee:	3e 3f       	jmp	$-386    	;abs 0x886c
    89f0:	3c 93       	cmp	#-1,	r12	;r3 As==11
    89f2:	b6 2b       	jnc	$-146    	;abs 0x8960
    89f4:	c1 3f       	jmp	$-124    	;abs 0x8978
    89f6:	0e 44       	mov	r4,	r14	
    89f8:	0f 45       	mov	r5,	r15	
    89fa:	0e 86       	sub	r6,	r14	
    89fc:	0f 77       	subc	r7,	r15	
    89fe:	97 3f       	jmp	$-208    	;abs 0x892e
    8a00:	0f 4e       	mov	r14,	r15	
    8a02:	79 3f       	jmp	$-268    	;abs 0x88f6
    8a04:	d8 43 01 00 	mov.b	#1,	1(r8)	;r3 As==01, 0x0001(r8)
    8a08:	a8 41 02 00 	mov	@r1,	2(r8)	;0x0002(r8)
    8a0c:	3e e3       	inv	r14		
    8a0e:	3f e3       	inv	r15		
    8a10:	1e 53       	inc	r14		
    8a12:	0f 63       	adc	r15		
    8a14:	88 4e 04 00 	mov	r14,	4(r8)	;0x0004(r8)
    8a18:	88 4f 06 00 	mov	r15,	6(r8)	;0x0006(r8)
    8a1c:	92 3f       	jmp	$-218    	;abs 0x8942
    8a1e:	0c 93       	tst	r12		
    8a20:	7b 27       	jz	$-264    	;abs 0x8918
    8a22:	81 59 00 00 	add	r9,	0(r1)	;0x0000(r1)
    8a26:	81 44 02 00 	mov	r4,	2(r1)	;0x0002(r1)
    8a2a:	81 45 04 00 	mov	r5,	4(r1)	;0x0004(r1)
    8a2e:	4d 49       	mov.b	r9,	r13	
    8a30:	7d f0 1f 00 	and.b	#31,	r13	;#0x001f
    8a34:	0c 24       	jz	$+26     	;abs 0x8a4e
    8a36:	4b 4d       	mov.b	r13,	r11	
    8a38:	0c 44       	mov	r4,	r12	
    8a3a:	0d 45       	mov	r5,	r13	
    8a3c:	12 c3       	clrc			
    8a3e:	0d 10       	rrc	r13		
    8a40:	0c 10       	rrc	r12		
    8a42:	7b 53       	add.b	#-1,	r11	;r3 As==11
    8a44:	fb 23       	jnz	$-8      	;abs 0x8a3c
    8a46:	81 4c 02 00 	mov	r12,	2(r1)	;0x0002(r1)
    8a4a:	81 4d 04 00 	mov	r13,	4(r1)	;0x0004(r1)
    8a4e:	1c 43       	mov	#1,	r12	;r3 As==01
    8a50:	0d 43       	clr	r13		
    8a52:	79 f0 1f 00 	and.b	#31,	r9	;#0x001f
    8a56:	04 24       	jz	$+10     	;abs 0x8a60
    8a58:	0c 5c       	rla	r12		
    8a5a:	0d 6d       	rlc	r13		
    8a5c:	79 53       	add.b	#-1,	r9	;r3 As==11
    8a5e:	fc 23       	jnz	$-6      	;abs 0x8a58
    8a60:	3c 53       	add	#-1,	r12	;r3 As==11
    8a62:	3d 63       	addc	#-1,	r13	;r3 As==11
    8a64:	0c f4       	and	r4,	r12	
    8a66:	0d f5       	and	r5,	r13	
    8a68:	1a 43       	mov	#1,	r10	;r3 As==01
    8a6a:	0b 43       	clr	r11		
    8a6c:	0c 93       	tst	r12		
    8a6e:	04 20       	jnz	$+10     	;abs 0x8a78
    8a70:	0d 93       	tst	r13		
    8a72:	02 20       	jnz	$+6      	;abs 0x8a78
    8a74:	0a 43       	clr	r10		
    8a76:	0b 43       	clr	r11		
    8a78:	14 41 02 00 	mov	2(r1),	r4	;0x0002(r1)
    8a7c:	15 41 04 00 	mov	4(r1),	r5	;0x0004(r1)
    8a80:	04 da       	bis	r10,	r4	
    8a82:	05 db       	bis	r11,	r5	
    8a84:	49 3f       	jmp	$-364    	;abs 0x8918
    8a86:	0a 43       	clr	r10		
    8a88:	0b 43       	clr	r11		
    8a8a:	18 3f       	jmp	$-462    	;abs 0x88bc
    8a8c:	6c 92       	cmp.b	#4,	r12	;r2 As==10
    8a8e:	33 23       	jnz	$-408    	;abs 0x88f6
    8a90:	df 9e 01 00 01 00 	cmp.b	1(r14),	1(r15)	;0x0001(r14), 0x0001(r15)
    8a96:	2f 27       	jz	$-416    	;abs 0x88f6
    8a98:	3f 40 a0 a0 	mov	#-24416,r15	;#0xa0a0
    8a9c:	2c 3f       	jmp	$-422    	;abs 0x88f6

00008a9e <__addsf3>:
    8a9e:	31 50 e0 ff 	add	#-32,	r1	;#0xffe0
    8aa2:	81 4e 04 00 	mov	r14,	4(r1)	;0x0004(r1)
    8aa6:	81 4f 06 00 	mov	r15,	6(r1)	;0x0006(r1)
    8aaa:	81 4c 00 00 	mov	r12,	0(r1)	;0x0000(r1)
    8aae:	81 4d 02 00 	mov	r13,	2(r1)	;0x0002(r1)
    8ab2:	0e 41       	mov	r1,	r14	
    8ab4:	3e 50 18 00 	add	#24,	r14	;#0x0018
    8ab8:	0f 41       	mov	r1,	r15	
    8aba:	2f 52       	add	#4,	r15	;r2 As==10
    8abc:	b0 12 c0 91 	call	#0x91c0	
    8ac0:	0e 41       	mov	r1,	r14	
    8ac2:	3e 50 10 00 	add	#16,	r14	;#0x0010
    8ac6:	0f 41       	mov	r1,	r15	
    8ac8:	b0 12 c0 91 	call	#0x91c0	
    8acc:	0d 41       	mov	r1,	r13	
    8ace:	3d 52       	add	#8,	r13	;r2 As==11
    8ad0:	0e 41       	mov	r1,	r14	
    8ad2:	3e 50 10 00 	add	#16,	r14	;#0x0010
    8ad6:	0f 41       	mov	r1,	r15	
    8ad8:	3f 50 18 00 	add	#24,	r15	;#0x0018
    8adc:	b0 12 0c 88 	call	#0x880c	
    8ae0:	b0 12 e2 8f 	call	#0x8fe2	
    8ae4:	31 50 20 00 	add	#32,	r1	;#0x0020
    8ae8:	30 41       	ret			

00008aea <__subsf3>:
    8aea:	31 50 e0 ff 	add	#-32,	r1	;#0xffe0
    8aee:	81 4e 04 00 	mov	r14,	4(r1)	;0x0004(r1)
    8af2:	81 4f 06 00 	mov	r15,	6(r1)	;0x0006(r1)
    8af6:	81 4c 00 00 	mov	r12,	0(r1)	;0x0000(r1)
    8afa:	81 4d 02 00 	mov	r13,	2(r1)	;0x0002(r1)
    8afe:	0e 41       	mov	r1,	r14	
    8b00:	3e 50 18 00 	add	#24,	r14	;#0x0018
    8b04:	0f 41       	mov	r1,	r15	
    8b06:	2f 52       	add	#4,	r15	;r2 As==10
    8b08:	b0 12 c0 91 	call	#0x91c0	
    8b0c:	0e 41       	mov	r1,	r14	
    8b0e:	3e 50 10 00 	add	#16,	r14	;#0x0010
    8b12:	0f 41       	mov	r1,	r15	
    8b14:	b0 12 c0 91 	call	#0x91c0	
    8b18:	d1 e3 11 00 	xor.b	#1,	17(r1)	;r3 As==01, 0x0011(r1)
    8b1c:	0d 41       	mov	r1,	r13	
    8b1e:	3d 52       	add	#8,	r13	;r2 As==11
    8b20:	0e 41       	mov	r1,	r14	
    8b22:	3e 50 10 00 	add	#16,	r14	;#0x0010
    8b26:	0f 41       	mov	r1,	r15	
    8b28:	3f 50 18 00 	add	#24,	r15	;#0x0018
    8b2c:	b0 12 0c 88 	call	#0x880c	
    8b30:	b0 12 e2 8f 	call	#0x8fe2	
    8b34:	31 50 20 00 	add	#32,	r1	;#0x0020
    8b38:	30 41       	ret			

00008b3a <__mulsf3>:
    8b3a:	0b 12       	push	r11		
    8b3c:	0a 12       	push	r10		
    8b3e:	09 12       	push	r9		
    8b40:	08 12       	push	r8		
    8b42:	07 12       	push	r7		
    8b44:	06 12       	push	r6		
    8b46:	05 12       	push	r5		
    8b48:	04 12       	push	r4		
    8b4a:	31 50 dc ff 	add	#-36,	r1	;#0xffdc
    8b4e:	81 4e 04 00 	mov	r14,	4(r1)	;0x0004(r1)
    8b52:	81 4f 06 00 	mov	r15,	6(r1)	;0x0006(r1)
    8b56:	81 4c 00 00 	mov	r12,	0(r1)	;0x0000(r1)
    8b5a:	81 4d 02 00 	mov	r13,	2(r1)	;0x0002(r1)
    8b5e:	0e 41       	mov	r1,	r14	
    8b60:	3e 50 18 00 	add	#24,	r14	;#0x0018
    8b64:	0f 41       	mov	r1,	r15	
    8b66:	2f 52       	add	#4,	r15	;r2 As==10
    8b68:	b0 12 c0 91 	call	#0x91c0	
    8b6c:	0e 41       	mov	r1,	r14	
    8b6e:	3e 50 10 00 	add	#16,	r14	;#0x0010
    8b72:	0f 41       	mov	r1,	r15	
    8b74:	b0 12 c0 91 	call	#0x91c0	
    8b78:	5f 41 18 00 	mov.b	24(r1),	r15	;0x0018(r1)
    8b7c:	6f 93       	cmp.b	#2,	r15	;r3 As==10
    8b7e:	b6 28       	jnc	$+366    	;abs 0x8cec
    8b80:	5e 41 10 00 	mov.b	16(r1),	r14	;0x0010(r1)
    8b84:	6e 93       	cmp.b	#2,	r14	;r3 As==10
    8b86:	d9 28       	jnc	$+436    	;abs 0x8d3a
    8b88:	6f 92       	cmp.b	#4,	r15	;r2 As==10
    8b8a:	ae 24       	jz	$+350    	;abs 0x8ce8
    8b8c:	6e 92       	cmp.b	#4,	r14	;r2 As==10
    8b8e:	e2 24       	jz	$+454    	;abs 0x8d54
    8b90:	6f 93       	cmp.b	#2,	r15	;r3 As==10
    8b92:	ac 24       	jz	$+346    	;abs 0x8cec
    8b94:	6e 93       	cmp.b	#2,	r14	;r3 As==10
    8b96:	d1 24       	jz	$+420    	;abs 0x8d3a
    8b98:	14 41 1c 00 	mov	28(r1),	r4	;0x001c(r1)
    8b9c:	15 41 1e 00 	mov	30(r1),	r5	;0x001e(r1)
    8ba0:	18 41 14 00 	mov	20(r1),	r8	;0x0014(r1)
    8ba4:	19 41 16 00 	mov	22(r1),	r9	;0x0016(r1)
    8ba8:	3c 40 20 00 	mov	#32,	r12	;#0x0020
    8bac:	0e 43       	clr	r14		
    8bae:	0f 43       	clr	r15		
    8bb0:	06 43       	clr	r6		
    8bb2:	07 43       	clr	r7		
    8bb4:	81 43 20 00 	mov	#0,	32(r1)	;r3 As==00, 0x0020(r1)
    8bb8:	81 43 22 00 	mov	#0,	34(r1)	;r3 As==00, 0x0022(r1)
    8bbc:	0a 43       	clr	r10		
    8bbe:	0b 43       	clr	r11		
    8bc0:	81 4c 20 00 	mov	r12,	32(r1)	;0x0020(r1)
    8bc4:	08 3c       	jmp	$+18     	;abs 0x8bd6
    8bc6:	08 58       	rla	r8		
    8bc8:	09 69       	rlc	r9		
    8bca:	12 c3       	clrc			
    8bcc:	05 10       	rrc	r5		
    8bce:	04 10       	rrc	r4		
    8bd0:	b1 53 20 00 	add	#-1,	32(r1)	;r3 As==11, 0x0020(r1)
    8bd4:	19 24       	jz	$+52     	;abs 0x8c08
    8bd6:	14 b3       	bit	#1,	r4	;r3 As==01
    8bd8:	0d 24       	jz	$+28     	;abs 0x8bf4
    8bda:	0a 58       	add	r8,	r10	
    8bdc:	0b 69       	addc	r9,	r11	
    8bde:	0e 56       	add	r6,	r14	
    8be0:	0f 67       	addc	r7,	r15	
    8be2:	1c 43       	mov	#1,	r12	;r3 As==01
    8be4:	0d 43       	clr	r13		
    8be6:	0b 99       	cmp	r9,	r11	
    8be8:	03 28       	jnc	$+8      	;abs 0x8bf0
    8bea:	0b 24       	jz	$+24     	;abs 0x8c02
    8bec:	0c 43       	clr	r12		
    8bee:	0d 43       	clr	r13		
    8bf0:	0e 5c       	add	r12,	r14	
    8bf2:	0f 6d       	addc	r13,	r15	
    8bf4:	06 56       	rla	r6		
    8bf6:	07 67       	rlc	r7		
    8bf8:	09 93       	tst	r9		
    8bfa:	e5 37       	jge	$-52     	;abs 0x8bc6
    8bfc:	16 d3       	bis	#1,	r6	;r3 As==01
    8bfe:	07 d3       	bis	#0,	r7	;r3 As==00
    8c00:	e2 3f       	jmp	$-58     	;abs 0x8bc6
    8c02:	0a 98       	cmp	r8,	r10	
    8c04:	f5 2b       	jnc	$-20     	;abs 0x8bf0
    8c06:	f2 3f       	jmp	$-26     	;abs 0x8bec
    8c08:	81 4a 20 00 	mov	r10,	32(r1)	;0x0020(r1)
    8c0c:	81 4b 22 00 	mov	r11,	34(r1)	;0x0022(r1)
    8c10:	0c 4f       	mov	r15,	r12	
    8c12:	1a 41 1a 00 	mov	26(r1),	r10	;0x001a(r1)
    8c16:	1a 51 12 00 	add	18(r1),	r10	;0x0012(r1)
    8c1a:	06 4a       	mov	r10,	r6	
    8c1c:	26 53       	incd	r6		
    8c1e:	81 46 0a 00 	mov	r6,	10(r1)	;0x000a(r1)
    8c22:	5d 43       	mov.b	#1,	r13	;r3 As==01
    8c24:	d1 91 11 00 19 00 	cmp.b	17(r1),	25(r1)	;0x0011(r1), 0x0019(r1)
    8c2a:	83 24       	jz	$+264    	;abs 0x8d32
    8c2c:	c1 4d 09 00 	mov.b	r13,	9(r1)	;0x0009(r1)
    8c30:	0c 93       	tst	r12		
    8c32:	3c 38       	jl	$+122    	;abs 0x8cac
    8c34:	3f 90 00 40 	cmp	#16384,	r15	;#0x4000
    8c38:	18 2c       	jc	$+50     	;abs 0x8c6a
    8c3a:	1d 41 0a 00 	mov	10(r1),	r13	;0x000a(r1)
    8c3e:	3d 53       	add	#-1,	r13	;r3 As==11
    8c40:	1a 41 20 00 	mov	32(r1),	r10	;0x0020(r1)
    8c44:	1b 41 22 00 	mov	34(r1),	r11	;0x0022(r1)
    8c48:	0c 4d       	mov	r13,	r12	
    8c4a:	0e 5e       	rla	r14		
    8c4c:	0f 6f       	rlc	r15		
    8c4e:	0b 93       	tst	r11		
    8c50:	2a 38       	jl	$+86     	;abs 0x8ca6
    8c52:	0a 5a       	rla	r10		
    8c54:	0b 6b       	rlc	r11		
    8c56:	3d 53       	add	#-1,	r13	;r3 As==11
    8c58:	3f 90 00 40 	cmp	#16384,	r15	;#0x4000
    8c5c:	f5 2b       	jnc	$-20     	;abs 0x8c48
    8c5e:	81 4a 20 00 	mov	r10,	32(r1)	;0x0020(r1)
    8c62:	81 4b 22 00 	mov	r11,	34(r1)	;0x0022(r1)
    8c66:	81 4c 0a 00 	mov	r12,	10(r1)	;0x000a(r1)
    8c6a:	0c 4e       	mov	r14,	r12	
    8c6c:	0d 4f       	mov	r15,	r13	
    8c6e:	3c f0 7f 00 	and	#127,	r12	;#0x007f
    8c72:	0d f3       	and	#0,	r13	;r3 As==00
    8c74:	3c 90 40 00 	cmp	#64,	r12	;#0x0040
    8c78:	44 24       	jz	$+138    	;abs 0x8d02
    8c7a:	81 4e 0c 00 	mov	r14,	12(r1)	;0x000c(r1)
    8c7e:	81 4f 0e 00 	mov	r15,	14(r1)	;0x000e(r1)
    8c82:	f1 40 03 00 08 00 	mov.b	#3,	8(r1)	;#0x0003, 0x0008(r1)
    8c88:	0f 41       	mov	r1,	r15	
    8c8a:	3f 52       	add	#8,	r15	;r2 As==11
    8c8c:	b0 12 e2 8f 	call	#0x8fe2	
    8c90:	31 50 24 00 	add	#36,	r1	;#0x0024
    8c94:	34 41       	pop	r4		
    8c96:	35 41       	pop	r5		
    8c98:	36 41       	pop	r6		
    8c9a:	37 41       	pop	r7		
    8c9c:	38 41       	pop	r8		
    8c9e:	39 41       	pop	r9		
    8ca0:	3a 41       	pop	r10		
    8ca2:	3b 41       	pop	r11		
    8ca4:	30 41       	ret			
    8ca6:	1e d3       	bis	#1,	r14	;r3 As==01
    8ca8:	0f d3       	bis	#0,	r15	;r3 As==00
    8caa:	d3 3f       	jmp	$-88     	;abs 0x8c52
    8cac:	3a 50 03 00 	add	#3,	r10	;#0x0003
    8cb0:	08 4a       	mov	r10,	r8	
    8cb2:	1e b3       	bit	#1,	r14	;r3 As==01
    8cb4:	10 24       	jz	$+34     	;abs 0x8cd6
    8cb6:	1c 41 20 00 	mov	32(r1),	r12	;0x0020(r1)
    8cba:	1d 41 22 00 	mov	34(r1),	r13	;0x0022(r1)
    8cbe:	12 c3       	clrc			
    8cc0:	0d 10       	rrc	r13		
    8cc2:	0c 10       	rrc	r12		
    8cc4:	06 4c       	mov	r12,	r6	
    8cc6:	07 4d       	mov	r13,	r7	
    8cc8:	06 d3       	bis	#0,	r6	;r3 As==00
    8cca:	37 d0 00 80 	bis	#-32768,r7	;#0x8000
    8cce:	81 46 20 00 	mov	r6,	32(r1)	;0x0020(r1)
    8cd2:	81 47 22 00 	mov	r7,	34(r1)	;0x0022(r1)
    8cd6:	12 c3       	clrc			
    8cd8:	0f 10       	rrc	r15		
    8cda:	0e 10       	rrc	r14		
    8cdc:	1a 53       	inc	r10		
    8cde:	0f 93       	tst	r15		
    8ce0:	e7 3b       	jl	$-48     	;abs 0x8cb0
    8ce2:	81 48 0a 00 	mov	r8,	10(r1)	;0x000a(r1)
    8ce6:	a6 3f       	jmp	$-178    	;abs 0x8c34
    8ce8:	6e 93       	cmp.b	#2,	r14	;r3 As==10
    8cea:	36 24       	jz	$+110    	;abs 0x8d58
    8cec:	5f 43       	mov.b	#1,	r15	;r3 As==01
    8cee:	d1 91 11 00 19 00 	cmp.b	17(r1),	25(r1)	;0x0011(r1), 0x0019(r1)
    8cf4:	20 24       	jz	$+66     	;abs 0x8d36
    8cf6:	c1 4f 19 00 	mov.b	r15,	25(r1)	;0x0019(r1)
    8cfa:	0f 41       	mov	r1,	r15	
    8cfc:	3f 50 18 00 	add	#24,	r15	;#0x0018
    8d00:	c5 3f       	jmp	$-116    	;abs 0x8c8c
    8d02:	0d 93       	tst	r13		
    8d04:	ba 23       	jnz	$-138    	;abs 0x8c7a
    8d06:	0c 4e       	mov	r14,	r12	
    8d08:	0d 4f       	mov	r15,	r13	
    8d0a:	3c f0 80 00 	and	#128,	r12	;#0x0080
    8d0e:	0d f3       	and	#0,	r13	;r3 As==00
    8d10:	0c 93       	tst	r12		
    8d12:	b3 23       	jnz	$-152    	;abs 0x8c7a
    8d14:	0d 93       	tst	r13		
    8d16:	b1 23       	jnz	$-156    	;abs 0x8c7a
    8d18:	81 93 20 00 	tst	32(r1)		;0x0020(r1)
    8d1c:	03 20       	jnz	$+8      	;abs 0x8d24
    8d1e:	81 93 22 00 	tst	34(r1)		;0x0022(r1)
    8d22:	ab 27       	jz	$-168    	;abs 0x8c7a
    8d24:	3e 50 40 00 	add	#64,	r14	;#0x0040
    8d28:	0f 63       	adc	r15		
    8d2a:	3e f0 80 ff 	and	#-128,	r14	;#0xff80
    8d2e:	3f f3       	and	#-1,	r15	;r3 As==11
    8d30:	a4 3f       	jmp	$-182    	;abs 0x8c7a
    8d32:	4d 43       	clr.b	r13		
    8d34:	7b 3f       	jmp	$-264    	;abs 0x8c2c
    8d36:	4f 43       	clr.b	r15		
    8d38:	de 3f       	jmp	$-66     	;abs 0x8cf6
    8d3a:	5f 43       	mov.b	#1,	r15	;r3 As==01
    8d3c:	d1 91 11 00 19 00 	cmp.b	17(r1),	25(r1)	;0x0011(r1), 0x0019(r1)
    8d42:	06 24       	jz	$+14     	;abs 0x8d50
    8d44:	c1 4f 11 00 	mov.b	r15,	17(r1)	;0x0011(r1)
    8d48:	0f 41       	mov	r1,	r15	
    8d4a:	3f 50 10 00 	add	#16,	r15	;#0x0010
    8d4e:	9e 3f       	jmp	$-194    	;abs 0x8c8c
    8d50:	4f 43       	clr.b	r15		
    8d52:	f8 3f       	jmp	$-14     	;abs 0x8d44
    8d54:	6f 93       	cmp.b	#2,	r15	;r3 As==10
    8d56:	f1 23       	jnz	$-28     	;abs 0x8d3a
    8d58:	3f 40 a0 a0 	mov	#-24416,r15	;#0xa0a0
    8d5c:	97 3f       	jmp	$-208    	;abs 0x8c8c

00008d5e <__gesf2>:
    8d5e:	31 50 e8 ff 	add	#-24,	r1	;#0xffe8
    8d62:	81 4e 04 00 	mov	r14,	4(r1)	;0x0004(r1)
    8d66:	81 4f 06 00 	mov	r15,	6(r1)	;0x0006(r1)
    8d6a:	81 4c 00 00 	mov	r12,	0(r1)	;0x0000(r1)
    8d6e:	81 4d 02 00 	mov	r13,	2(r1)	;0x0002(r1)
    8d72:	0e 41       	mov	r1,	r14	
    8d74:	3e 50 10 00 	add	#16,	r14	;#0x0010
    8d78:	0f 41       	mov	r1,	r15	
    8d7a:	2f 52       	add	#4,	r15	;r2 As==10
    8d7c:	b0 12 c0 91 	call	#0x91c0	
    8d80:	0e 41       	mov	r1,	r14	
    8d82:	3e 52       	add	#8,	r14	;r2 As==11
    8d84:	0f 41       	mov	r1,	r15	
    8d86:	b0 12 c0 91 	call	#0x91c0	
    8d8a:	e1 93 10 00 	cmp.b	#2,	16(r1)	;r3 As==10, 0x0010(r1)
    8d8e:	0d 28       	jnc	$+28     	;abs 0x8daa
    8d90:	e1 93 08 00 	cmp.b	#2,	8(r1)	;r3 As==10, 0x0008(r1)
    8d94:	0a 28       	jnc	$+22     	;abs 0x8daa
    8d96:	0e 41       	mov	r1,	r14	
    8d98:	3e 52       	add	#8,	r14	;r2 As==11
    8d9a:	0f 41       	mov	r1,	r15	
    8d9c:	3f 50 10 00 	add	#16,	r15	;#0x0010
    8da0:	b0 12 e4 92 	call	#0x92e4	
    8da4:	31 50 18 00 	add	#24,	r1	;#0x0018
    8da8:	30 41       	ret			
    8daa:	3f 43       	mov	#-1,	r15	;r3 As==11
    8dac:	fb 3f       	jmp	$-8      	;abs 0x8da4

00008dae <__ltsf2>:
    8dae:	31 50 e8 ff 	add	#-24,	r1	;#0xffe8
    8db2:	81 4e 04 00 	mov	r14,	4(r1)	;0x0004(r1)
    8db6:	81 4f 06 00 	mov	r15,	6(r1)	;0x0006(r1)
    8dba:	81 4c 00 00 	mov	r12,	0(r1)	;0x0000(r1)
    8dbe:	81 4d 02 00 	mov	r13,	2(r1)	;0x0002(r1)
    8dc2:	0e 41       	mov	r1,	r14	
    8dc4:	3e 50 10 00 	add	#16,	r14	;#0x0010
    8dc8:	0f 41       	mov	r1,	r15	
    8dca:	2f 52       	add	#4,	r15	;r2 As==10
    8dcc:	b0 12 c0 91 	call	#0x91c0	
    8dd0:	0e 41       	mov	r1,	r14	
    8dd2:	3e 52       	add	#8,	r14	;r2 As==11
    8dd4:	0f 41       	mov	r1,	r15	
    8dd6:	b0 12 c0 91 	call	#0x91c0	
    8dda:	e1 93 10 00 	cmp.b	#2,	16(r1)	;r3 As==10, 0x0010(r1)
    8dde:	0d 28       	jnc	$+28     	;abs 0x8dfa
    8de0:	e1 93 08 00 	cmp.b	#2,	8(r1)	;r3 As==10, 0x0008(r1)
    8de4:	0a 28       	jnc	$+22     	;abs 0x8dfa
    8de6:	0e 41       	mov	r1,	r14	
    8de8:	3e 52       	add	#8,	r14	;r2 As==11
    8dea:	0f 41       	mov	r1,	r15	
    8dec:	3f 50 10 00 	add	#16,	r15	;#0x0010
    8df0:	b0 12 e4 92 	call	#0x92e4	
    8df4:	31 50 18 00 	add	#24,	r1	;#0x0018
    8df8:	30 41       	ret			
    8dfa:	1f 43       	mov	#1,	r15	;r3 As==01
    8dfc:	fb 3f       	jmp	$-8      	;abs 0x8df4

00008dfe <__fixsfsi>:
    8dfe:	31 50 f4 ff 	add	#-12,	r1	;#0xfff4
    8e02:	81 4e 00 00 	mov	r14,	0(r1)	;0x0000(r1)
    8e06:	81 4f 02 00 	mov	r15,	2(r1)	;0x0002(r1)
    8e0a:	0e 41       	mov	r1,	r14	
    8e0c:	2e 52       	add	#4,	r14	;r2 As==10
    8e0e:	0f 41       	mov	r1,	r15	
    8e10:	b0 12 c0 91 	call	#0x91c0	
    8e14:	5f 41 04 00 	mov.b	4(r1),	r15	;0x0004(r1)
    8e18:	6f 93       	cmp.b	#2,	r15	;r3 As==10
    8e1a:	28 24       	jz	$+82     	;abs 0x8e6c
    8e1c:	27 28       	jnc	$+80     	;abs 0x8e6c
    8e1e:	6f 92       	cmp.b	#4,	r15	;r2 As==10
    8e20:	07 24       	jz	$+16     	;abs 0x8e30
    8e22:	1d 41 06 00 	mov	6(r1),	r13	;0x0006(r1)
    8e26:	0d 93       	tst	r13		
    8e28:	21 38       	jl	$+68     	;abs 0x8e6c
    8e2a:	3d 90 1f 00 	cmp	#31,	r13	;#0x001f
    8e2e:	09 38       	jl	$+20     	;abs 0x8e42
    8e30:	c1 93 05 00 	tst.b	5(r1)		;0x0005(r1)
    8e34:	26 20       	jnz	$+78     	;abs 0x8e82
    8e36:	3e 43       	mov	#-1,	r14	;r3 As==11
    8e38:	3f 40 ff 7f 	mov	#32767,	r15	;#0x7fff
    8e3c:	31 50 0c 00 	add	#12,	r1	;#0x000c
    8e40:	30 41       	ret			
    8e42:	1e 41 08 00 	mov	8(r1),	r14	;0x0008(r1)
    8e46:	1f 41 0a 00 	mov	10(r1),	r15	;0x000a(r1)
    8e4a:	3c 40 1e 00 	mov	#30,	r12	;#0x001e
    8e4e:	4c 8d       	sub.b	r13,	r12	
    8e50:	4d 4c       	mov.b	r12,	r13	
    8e52:	7d f0 1f 00 	and.b	#31,	r13	;#0x001f
    8e56:	0f 20       	jnz	$+32     	;abs 0x8e76
    8e58:	c1 93 05 00 	tst.b	5(r1)		;0x0005(r1)
    8e5c:	ef 27       	jz	$-32     	;abs 0x8e3c
    8e5e:	3e e3       	inv	r14		
    8e60:	3f e3       	inv	r15		
    8e62:	1e 53       	inc	r14		
    8e64:	0f 63       	adc	r15		
    8e66:	31 50 0c 00 	add	#12,	r1	;#0x000c
    8e6a:	30 41       	ret			
    8e6c:	0e 43       	clr	r14		
    8e6e:	0f 43       	clr	r15		
    8e70:	31 50 0c 00 	add	#12,	r1	;#0x000c
    8e74:	30 41       	ret			
    8e76:	12 c3       	clrc			
    8e78:	0f 10       	rrc	r15		
    8e7a:	0e 10       	rrc	r14		
    8e7c:	7d 53       	add.b	#-1,	r13	;r3 As==11
    8e7e:	fb 23       	jnz	$-8      	;abs 0x8e76
    8e80:	eb 3f       	jmp	$-40     	;abs 0x8e58
    8e82:	0e 43       	clr	r14		
    8e84:	3f 40 00 80 	mov	#-32768,r15	;#0x8000
    8e88:	31 50 0c 00 	add	#12,	r1	;#0x000c
    8e8c:	30 41       	ret			

00008e8e <__floatunsisf>:
    8e8e:	0b 12       	push	r11		
    8e90:	0a 12       	push	r10		
    8e92:	09 12       	push	r9		
    8e94:	08 12       	push	r8		
    8e96:	31 82       	sub	#8,	r1	;r2 As==11
    8e98:	0a 4e       	mov	r14,	r10	
    8e9a:	0b 4f       	mov	r15,	r11	
    8e9c:	c1 43 01 00 	mov.b	#0,	1(r1)	;r3 As==00, 0x0001(r1)
    8ea0:	0e 93       	tst	r14		
    8ea2:	0d 20       	jnz	$+28     	;abs 0x8ebe
    8ea4:	0b 93       	tst	r11		
    8ea6:	0b 20       	jnz	$+24     	;abs 0x8ebe
    8ea8:	e1 43 00 00 	mov.b	#2,	0(r1)	;r3 As==10, 0x0000(r1)
    8eac:	0f 41       	mov	r1,	r15	
    8eae:	b0 12 e2 8f 	call	#0x8fe2	
    8eb2:	31 52       	add	#8,	r1	;r2 As==11
    8eb4:	38 41       	pop	r8		
    8eb6:	39 41       	pop	r9		
    8eb8:	3a 41       	pop	r10		
    8eba:	3b 41       	pop	r11		
    8ebc:	30 41       	ret			
    8ebe:	f1 40 03 00 00 00 	mov.b	#3,	0(r1)	;#0x0003, 0x0000(r1)
    8ec4:	b1 40 1e 00 02 00 	mov	#30,	2(r1)	;#0x001e, 0x0002(r1)
    8eca:	81 4a 04 00 	mov	r10,	4(r1)	;0x0004(r1)
    8ece:	81 4b 06 00 	mov	r11,	6(r1)	;0x0006(r1)
    8ed2:	0e 4a       	mov	r10,	r14	
    8ed4:	0f 4b       	mov	r11,	r15	
    8ed6:	b0 12 70 8f 	call	#0x8f70	
    8eda:	3f 53       	add	#-1,	r15	;r3 As==11
    8edc:	0f 93       	tst	r15		
    8ede:	18 38       	jl	$+50     	;abs 0x8f10
    8ee0:	e5 27       	jz	$-52     	;abs 0x8eac
    8ee2:	81 4a 04 00 	mov	r10,	4(r1)	;0x0004(r1)
    8ee6:	81 4b 06 00 	mov	r11,	6(r1)	;0x0006(r1)
    8eea:	4e 4f       	mov.b	r15,	r14	
    8eec:	7e f0 1f 00 	and.b	#31,	r14	;#0x001f
    8ef0:	06 20       	jnz	$+14     	;abs 0x8efe
    8ef2:	3e 40 1e 00 	mov	#30,	r14	;#0x001e
    8ef6:	0e 8f       	sub	r15,	r14	
    8ef8:	81 4e 02 00 	mov	r14,	2(r1)	;0x0002(r1)
    8efc:	d7 3f       	jmp	$-80     	;abs 0x8eac
    8efe:	91 51 04 00 04 00 	rla	4(r1)		;0x0004(r1)
    8f04:	91 61 06 00 06 00 	rlc	6(r1)		;0x0006(r1)
    8f0a:	7e 53       	add.b	#-1,	r14	;r3 As==11
    8f0c:	f8 23       	jnz	$-14     	;abs 0x8efe
    8f0e:	f1 3f       	jmp	$-28     	;abs 0x8ef2
    8f10:	0e 4f       	mov	r15,	r14	
    8f12:	3e e3       	inv	r14		
    8f14:	1e 53       	inc	r14		
    8f16:	1c 43       	mov	#1,	r12	;r3 As==01
    8f18:	0d 43       	clr	r13		
    8f1a:	48 4e       	mov.b	r14,	r8	
    8f1c:	78 f0 1f 00 	and.b	#31,	r8	;#0x001f
    8f20:	04 24       	jz	$+10     	;abs 0x8f2a
    8f22:	0c 5c       	rla	r12		
    8f24:	0d 6d       	rlc	r13		
    8f26:	78 53       	add.b	#-1,	r8	;r3 As==11
    8f28:	fc 23       	jnz	$-6      	;abs 0x8f22
    8f2a:	3c 53       	add	#-1,	r12	;r3 As==11
    8f2c:	3d 63       	addc	#-1,	r13	;r3 As==11
    8f2e:	0c fa       	and	r10,	r12	
    8f30:	0d fb       	and	r11,	r13	
    8f32:	18 43       	mov	#1,	r8	;r3 As==01
    8f34:	09 43       	clr	r9		
    8f36:	0c 93       	tst	r12		
    8f38:	04 20       	jnz	$+10     	;abs 0x8f42
    8f3a:	0d 93       	tst	r13		
    8f3c:	02 20       	jnz	$+6      	;abs 0x8f42
    8f3e:	08 43       	clr	r8		
    8f40:	09 43       	clr	r9		
    8f42:	7e f0 1f 00 	and.b	#31,	r14	;#0x001f
    8f46:	0e 20       	jnz	$+30     	;abs 0x8f64
    8f48:	0d 48       	mov	r8,	r13	
    8f4a:	0e 49       	mov	r9,	r14	
    8f4c:	0d da       	bis	r10,	r13	
    8f4e:	0e db       	bis	r11,	r14	
    8f50:	81 4d 04 00 	mov	r13,	4(r1)	;0x0004(r1)
    8f54:	81 4e 06 00 	mov	r14,	6(r1)	;0x0006(r1)
    8f58:	3e 40 1e 00 	mov	#30,	r14	;#0x001e
    8f5c:	0e 8f       	sub	r15,	r14	
    8f5e:	81 4e 02 00 	mov	r14,	2(r1)	;0x0002(r1)
    8f62:	a4 3f       	jmp	$-182    	;abs 0x8eac
    8f64:	12 c3       	clrc			
    8f66:	0b 10       	rrc	r11		
    8f68:	0a 10       	rrc	r10		
    8f6a:	7e 53       	add.b	#-1,	r14	;r3 As==11
    8f6c:	fb 23       	jnz	$-8      	;abs 0x8f64
    8f6e:	ec 3f       	jmp	$-38     	;abs 0x8f48

00008f70 <__clzsi2>:
    8f70:	0b 12       	push	r11		
    8f72:	0a 12       	push	r10		
    8f74:	09 12       	push	r9		
    8f76:	1f 93       	cmp	#1,	r15	;r3 As==01
    8f78:	17 2c       	jc	$+48     	;abs 0x8fa8
    8f7a:	3e 90 00 01 	cmp	#256,	r14	;#0x0100
    8f7e:	2c 28       	jnc	$+90     	;abs 0x8fd8
    8f80:	3a 40 18 00 	mov	#24,	r10	;#0x0018
    8f84:	0b 43       	clr	r11		
    8f86:	39 42       	mov	#8,	r9	;r2 As==11
    8f88:	0c 4e       	mov	r14,	r12	
    8f8a:	0d 4f       	mov	r15,	r13	
    8f8c:	4f 49       	mov.b	r9,	r15	
    8f8e:	4f 93       	tst.b	r15		
    8f90:	17 20       	jnz	$+48     	;abs 0x8fc0
    8f92:	3c 50 a8 a0 	add	#-24408,r12	;#0xa0a8
    8f96:	6e 4c       	mov.b	@r12,	r14	
    8f98:	0f 43       	clr	r15		
    8f9a:	0a 8e       	sub	r14,	r10	
    8f9c:	0b 7f       	subc	r15,	r11	
    8f9e:	0f 4a       	mov	r10,	r15	
    8fa0:	39 41       	pop	r9		
    8fa2:	3a 41       	pop	r10		
    8fa4:	3b 41       	pop	r11		
    8fa6:	30 41       	ret			
    8fa8:	3f 90 00 01 	cmp	#256,	r15	;#0x0100
    8fac:	0f 28       	jnc	$+32     	;abs 0x8fcc
    8fae:	3a 42       	mov	#8,	r10	;r2 As==11
    8fb0:	0b 43       	clr	r11		
    8fb2:	39 40 18 00 	mov	#24,	r9	;#0x0018
    8fb6:	0c 4e       	mov	r14,	r12	
    8fb8:	0d 4f       	mov	r15,	r13	
    8fba:	4f 49       	mov.b	r9,	r15	
    8fbc:	4f 93       	tst.b	r15		
    8fbe:	e9 27       	jz	$-44     	;abs 0x8f92
    8fc0:	12 c3       	clrc			
    8fc2:	0d 10       	rrc	r13		
    8fc4:	0c 10       	rrc	r12		
    8fc6:	7f 53       	add.b	#-1,	r15	;r3 As==11
    8fc8:	fb 23       	jnz	$-8      	;abs 0x8fc0
    8fca:	e3 3f       	jmp	$-56     	;abs 0x8f92
    8fcc:	3a 40 10 00 	mov	#16,	r10	;#0x0010
    8fd0:	0b 43       	clr	r11		
    8fd2:	39 40 10 00 	mov	#16,	r9	;#0x0010
    8fd6:	ef 3f       	jmp	$-32     	;abs 0x8fb6
    8fd8:	3a 40 20 00 	mov	#32,	r10	;#0x0020
    8fdc:	0b 43       	clr	r11		
    8fde:	09 43       	clr	r9		
    8fe0:	ea 3f       	jmp	$-42     	;abs 0x8fb6

00008fe2 <__pack_f>:
    8fe2:	0b 12       	push	r11		
    8fe4:	0a 12       	push	r10		
    8fe6:	09 12       	push	r9		
    8fe8:	08 12       	push	r8		
    8fea:	07 12       	push	r7		
    8fec:	0d 4f       	mov	r15,	r13	
    8fee:	1e 4f 04 00 	mov	4(r15),	r14	;0x0004(r15)
    8ff2:	1f 4f 06 00 	mov	6(r15),	r15	;0x0006(r15)
    8ff6:	5a 4d 01 00 	mov.b	1(r13),	r10	;0x0001(r13)
    8ffa:	6c 4d       	mov.b	@r13,	r12	
    8ffc:	6c 93       	cmp.b	#2,	r12	;r3 As==10
    8ffe:	70 28       	jnc	$+226    	;abs 0x90e0
    9000:	6c 92       	cmp.b	#4,	r12	;r2 As==10
    9002:	6a 24       	jz	$+214    	;abs 0x90d8
    9004:	6c 93       	cmp.b	#2,	r12	;r3 As==10
    9006:	36 24       	jz	$+110    	;abs 0x9074
    9008:	0e 93       	tst	r14		
    900a:	32 24       	jz	$+102    	;abs 0x9070
    900c:	1b 4d 02 00 	mov	2(r13),	r11	;0x0002(r13)
    9010:	3b 90 82 ff 	cmp	#-126,	r11	;#0xff82
    9014:	6d 38       	jl	$+220    	;abs 0x90f0
    9016:	3b 90 80 00 	cmp	#128,	r11	;#0x0080
    901a:	5e 34       	jge	$+190    	;abs 0x90d8
    901c:	0c 4e       	mov	r14,	r12	
    901e:	0d 4f       	mov	r15,	r13	
    9020:	3c f0 7f 00 	and	#127,	r12	;#0x007f
    9024:	0d f3       	and	#0,	r13	;r3 As==00
    9026:	3c 90 40 00 	cmp	#64,	r12	;#0x0040
    902a:	40 24       	jz	$+130    	;abs 0x90ac
    902c:	3e 50 3f 00 	add	#63,	r14	;#0x003f
    9030:	0f 63       	adc	r15		
    9032:	0f 93       	tst	r15		
    9034:	4a 38       	jl	$+150    	;abs 0x90ca
    9036:	0d 4b       	mov	r11,	r13	
    9038:	3d 50 7f 00 	add	#127,	r13	;#0x007f
    903c:	12 c3       	clrc			
    903e:	0f 10       	rrc	r15		
    9040:	0e 10       	rrc	r14		
    9042:	12 c3       	clrc			
    9044:	0f 10       	rrc	r15		
    9046:	0e 10       	rrc	r14		
    9048:	12 c3       	clrc			
    904a:	0f 10       	rrc	r15		
    904c:	0e 10       	rrc	r14		
    904e:	12 c3       	clrc			
    9050:	0f 10       	rrc	r15		
    9052:	0e 10       	rrc	r14		
    9054:	12 c3       	clrc			
    9056:	0f 10       	rrc	r15		
    9058:	0e 10       	rrc	r14		
    905a:	12 c3       	clrc			
    905c:	0f 10       	rrc	r15		
    905e:	0e 10       	rrc	r14		
    9060:	12 c3       	clrc			
    9062:	0f 10       	rrc	r15		
    9064:	0e 10       	rrc	r14		
    9066:	3e f3       	and	#-1,	r14	;r3 As==11
    9068:	3f f0 7f 00 	and	#127,	r15	;#0x007f
    906c:	4d 4d       	mov.b	r13,	r13	
    906e:	05 3c       	jmp	$+12     	;abs 0x907a
    9070:	0f 93       	tst	r15		
    9072:	cc 23       	jnz	$-102    	;abs 0x900c
    9074:	4d 43       	clr.b	r13		
    9076:	0e 43       	clr	r14		
    9078:	0f 43       	clr	r15		
    907a:	4d 4d       	mov.b	r13,	r13	
    907c:	0d 5d       	rla	r13		
    907e:	0d 5d       	rla	r13		
    9080:	0d 5d       	rla	r13		
    9082:	0d 5d       	rla	r13		
    9084:	0d 5d       	rla	r13		
    9086:	0d 5d       	rla	r13		
    9088:	0d 5d       	rla	r13		
    908a:	0c 4f       	mov	r15,	r12	
    908c:	3c f0 7f 00 	and	#127,	r12	;#0x007f
    9090:	0c dd       	bis	r13,	r12	
    9092:	4f 4a       	mov.b	r10,	r15	
    9094:	0f 11       	rra	r15		
    9096:	0f 43       	clr	r15		
    9098:	0f 10       	rrc	r15		
    909a:	0d 4c       	mov	r12,	r13	
    909c:	0d df       	bis	r15,	r13	
    909e:	0f 4d       	mov	r13,	r15	
    90a0:	37 41       	pop	r7		
    90a2:	38 41       	pop	r8		
    90a4:	39 41       	pop	r9		
    90a6:	3a 41       	pop	r10		
    90a8:	3b 41       	pop	r11		
    90aa:	30 41       	ret			
    90ac:	0d 93       	tst	r13		
    90ae:	be 23       	jnz	$-130    	;abs 0x902c
    90b0:	0c 4e       	mov	r14,	r12	
    90b2:	0d 4f       	mov	r15,	r13	
    90b4:	3c f0 80 00 	and	#128,	r12	;#0x0080
    90b8:	0d f3       	and	#0,	r13	;r3 As==00
    90ba:	0c 93       	tst	r12		
    90bc:	02 20       	jnz	$+6      	;abs 0x90c2
    90be:	0d 93       	tst	r13		
    90c0:	b8 27       	jz	$-142    	;abs 0x9032
    90c2:	3e 50 40 00 	add	#64,	r14	;#0x0040
    90c6:	0f 63       	adc	r15		
    90c8:	b4 3f       	jmp	$-150    	;abs 0x9032
    90ca:	12 c3       	clrc			
    90cc:	0f 10       	rrc	r15		
    90ce:	0e 10       	rrc	r14		
    90d0:	0d 4b       	mov	r11,	r13	
    90d2:	3d 50 80 00 	add	#128,	r13	;#0x0080
    90d6:	b2 3f       	jmp	$-154    	;abs 0x903c
    90d8:	7d 43       	mov.b	#-1,	r13	;r3 As==11
    90da:	0e 43       	clr	r14		
    90dc:	0f 43       	clr	r15		
    90de:	cd 3f       	jmp	$-100    	;abs 0x907a
    90e0:	0e d3       	bis	#0,	r14	;r3 As==00
    90e2:	3f d0 10 00 	bis	#16,	r15	;#0x0010
    90e6:	3e f3       	and	#-1,	r14	;r3 As==11
    90e8:	3f f0 7f 00 	and	#127,	r15	;#0x007f
    90ec:	7d 43       	mov.b	#-1,	r13	;r3 As==11
    90ee:	c5 3f       	jmp	$-116    	;abs 0x907a
    90f0:	37 40 82 ff 	mov	#-126,	r7	;#0xff82
    90f4:	07 8b       	sub	r11,	r7	
    90f6:	37 90 1a 00 	cmp	#26,	r7	;#0x001a
    90fa:	4f 34       	jge	$+160    	;abs 0x919a
    90fc:	0c 4e       	mov	r14,	r12	
    90fe:	0d 4f       	mov	r15,	r13	
    9100:	4b 47       	mov.b	r7,	r11	
    9102:	7b f0 1f 00 	and.b	#31,	r11	;#0x001f
    9106:	05 24       	jz	$+12     	;abs 0x9112
    9108:	12 c3       	clrc			
    910a:	0d 10       	rrc	r13		
    910c:	0c 10       	rrc	r12		
    910e:	7b 53       	add.b	#-1,	r11	;r3 As==11
    9110:	fb 23       	jnz	$-8      	;abs 0x9108
    9112:	18 43       	mov	#1,	r8	;r3 As==01
    9114:	09 43       	clr	r9		
    9116:	77 f0 1f 00 	and.b	#31,	r7	;#0x001f
    911a:	04 24       	jz	$+10     	;abs 0x9124
    911c:	08 58       	rla	r8		
    911e:	09 69       	rlc	r9		
    9120:	77 53       	add.b	#-1,	r7	;r3 As==11
    9122:	fc 23       	jnz	$-6      	;abs 0x911c
    9124:	38 53       	add	#-1,	r8	;r3 As==11
    9126:	39 63       	addc	#-1,	r9	;r3 As==11
    9128:	08 fe       	and	r14,	r8	
    912a:	09 ff       	and	r15,	r9	
    912c:	1e 43       	mov	#1,	r14	;r3 As==01
    912e:	0f 43       	clr	r15		
    9130:	08 93       	tst	r8		
    9132:	04 20       	jnz	$+10     	;abs 0x913c
    9134:	09 93       	tst	r9		
    9136:	02 20       	jnz	$+6      	;abs 0x913c
    9138:	0e 43       	clr	r14		
    913a:	0f 43       	clr	r15		
    913c:	08 4e       	mov	r14,	r8	
    913e:	09 4f       	mov	r15,	r9	
    9140:	08 dc       	bis	r12,	r8	
    9142:	09 dd       	bis	r13,	r9	
    9144:	0e 48       	mov	r8,	r14	
    9146:	0f 49       	mov	r9,	r15	
    9148:	3e f0 7f 00 	and	#127,	r14	;#0x007f
    914c:	0f f3       	and	#0,	r15	;r3 As==00
    914e:	3e 90 40 00 	cmp	#64,	r14	;#0x0040
    9152:	26 24       	jz	$+78     	;abs 0x91a0
    9154:	38 50 3f 00 	add	#63,	r8	;#0x003f
    9158:	09 63       	adc	r9		
    915a:	0e 48       	mov	r8,	r14	
    915c:	0f 49       	mov	r9,	r15	
    915e:	12 c3       	clrc			
    9160:	0f 10       	rrc	r15		
    9162:	0e 10       	rrc	r14		
    9164:	12 c3       	clrc			
    9166:	0f 10       	rrc	r15		
    9168:	0e 10       	rrc	r14		
    916a:	12 c3       	clrc			
    916c:	0f 10       	rrc	r15		
    916e:	0e 10       	rrc	r14		
    9170:	12 c3       	clrc			
    9172:	0f 10       	rrc	r15		
    9174:	0e 10       	rrc	r14		
    9176:	12 c3       	clrc			
    9178:	0f 10       	rrc	r15		
    917a:	0e 10       	rrc	r14		
    917c:	12 c3       	clrc			
    917e:	0f 10       	rrc	r15		
    9180:	0e 10       	rrc	r14		
    9182:	12 c3       	clrc			
    9184:	0f 10       	rrc	r15		
    9186:	0e 10       	rrc	r14		
    9188:	3e f3       	and	#-1,	r14	;r3 As==11
    918a:	3f f0 7f 00 	and	#127,	r15	;#0x007f
    918e:	5d 43       	mov.b	#1,	r13	;r3 As==01
    9190:	39 90 00 40 	cmp	#16384,	r9	;#0x4000
    9194:	72 2f       	jc	$-282    	;abs 0x907a
    9196:	4d 43       	clr.b	r13		
    9198:	70 3f       	jmp	$-286    	;abs 0x907a
    919a:	08 43       	clr	r8		
    919c:	09 43       	clr	r9		
    919e:	da 3f       	jmp	$-74     	;abs 0x9154
    91a0:	0f 93       	tst	r15		
    91a2:	d8 23       	jnz	$-78     	;abs 0x9154
    91a4:	0e 48       	mov	r8,	r14	
    91a6:	0f 49       	mov	r9,	r15	
    91a8:	3e f0 80 00 	and	#128,	r14	;#0x0080
    91ac:	0f f3       	and	#0,	r15	;r3 As==00
    91ae:	0e 93       	tst	r14		
    91b0:	04 24       	jz	$+10     	;abs 0x91ba
    91b2:	38 50 40 00 	add	#64,	r8	;#0x0040
    91b6:	09 63       	adc	r9		
    91b8:	d0 3f       	jmp	$-94     	;abs 0x915a
    91ba:	0f 93       	tst	r15		
    91bc:	ce 27       	jz	$-98     	;abs 0x915a
    91be:	f9 3f       	jmp	$-12     	;abs 0x91b2

000091c0 <__unpack_f>:
    91c0:	0b 12       	push	r11		
    91c2:	0a 12       	push	r10		
    91c4:	2a 4f       	mov	@r15,	r10	
    91c6:	5b 4f 02 00 	mov.b	2(r15),	r11	;0x0002(r15)
    91ca:	3b f0 7f 00 	and	#127,	r11	;#0x007f
    91ce:	1d 4f 02 00 	mov	2(r15),	r13	;0x0002(r15)
    91d2:	12 c3       	clrc			
    91d4:	0d 10       	rrc	r13		
    91d6:	12 c3       	clrc			
    91d8:	0d 10       	rrc	r13		
    91da:	12 c3       	clrc			
    91dc:	0d 10       	rrc	r13		
    91de:	12 c3       	clrc			
    91e0:	0d 10       	rrc	r13		
    91e2:	12 c3       	clrc			
    91e4:	0d 10       	rrc	r13		
    91e6:	12 c3       	clrc			
    91e8:	0d 10       	rrc	r13		
    91ea:	12 c3       	clrc			
    91ec:	0d 10       	rrc	r13		
    91ee:	4d 4d       	mov.b	r13,	r13	
    91f0:	5f 4f 03 00 	mov.b	3(r15),	r15	;0x0003(r15)
    91f4:	3f b0 80 00 	bit	#128,	r15	;#0x0080
    91f8:	0f 43       	clr	r15		
    91fa:	0f 6f       	rlc	r15		
    91fc:	ce 4f 01 00 	mov.b	r15,	1(r14)	;0x0001(r14)
    9200:	0d 93       	tst	r13		
    9202:	2d 20       	jnz	$+92     	;abs 0x925e
    9204:	0a 93       	tst	r10		
    9206:	51 24       	jz	$+164    	;abs 0x92aa
    9208:	be 40 82 ff 02 00 	mov	#-126,	2(r14)	;#0xff82, 0x0002(r14)
    920e:	0c 4a       	mov	r10,	r12	
    9210:	0d 4b       	mov	r11,	r13	
    9212:	0c 5c       	rla	r12		
    9214:	0d 6d       	rlc	r13		
    9216:	0c 5c       	rla	r12		
    9218:	0d 6d       	rlc	r13		
    921a:	0c 5c       	rla	r12		
    921c:	0d 6d       	rlc	r13		
    921e:	0c 5c       	rla	r12		
    9220:	0d 6d       	rlc	r13		
    9222:	0c 5c       	rla	r12		
    9224:	0d 6d       	rlc	r13		
    9226:	0c 5c       	rla	r12		
    9228:	0d 6d       	rlc	r13		
    922a:	0c 5c       	rla	r12		
    922c:	0d 6d       	rlc	r13		
    922e:	fe 40 03 00 00 00 	mov.b	#3,	0(r14)	;#0x0003, 0x0000(r14)
    9234:	3d 90 00 40 	cmp	#16384,	r13	;#0x4000
    9238:	0b 2c       	jc	$+24     	;abs 0x9250
    923a:	3f 40 81 ff 	mov	#-127,	r15	;#0xff81
    923e:	0c 5c       	rla	r12		
    9240:	0d 6d       	rlc	r13		
    9242:	0a 4f       	mov	r15,	r10	
    9244:	3f 53       	add	#-1,	r15	;r3 As==11
    9246:	3d 90 00 40 	cmp	#16384,	r13	;#0x4000
    924a:	f9 2b       	jnc	$-12     	;abs 0x923e
    924c:	8e 4a 02 00 	mov	r10,	2(r14)	;0x0002(r14)
    9250:	8e 4c 04 00 	mov	r12,	4(r14)	;0x0004(r14)
    9254:	8e 4d 06 00 	mov	r13,	6(r14)	;0x0006(r14)
    9258:	3a 41       	pop	r10		
    925a:	3b 41       	pop	r11		
    925c:	30 41       	ret			
    925e:	3d 90 ff 00 	cmp	#255,	r13	;#0x00ff
    9262:	2a 24       	jz	$+86     	;abs 0x92b8
    9264:	3d 50 81 ff 	add	#-127,	r13	;#0xff81
    9268:	8e 4d 02 00 	mov	r13,	2(r14)	;0x0002(r14)
    926c:	fe 40 03 00 00 00 	mov.b	#3,	0(r14)	;#0x0003, 0x0000(r14)
    9272:	0c 4a       	mov	r10,	r12	
    9274:	0d 4b       	mov	r11,	r13	
    9276:	0c 5c       	rla	r12		
    9278:	0d 6d       	rlc	r13		
    927a:	0c 5c       	rla	r12		
    927c:	0d 6d       	rlc	r13		
    927e:	0c 5c       	rla	r12		
    9280:	0d 6d       	rlc	r13		
    9282:	0c 5c       	rla	r12		
    9284:	0d 6d       	rlc	r13		
    9286:	0c 5c       	rla	r12		
    9288:	0d 6d       	rlc	r13		
    928a:	0c 5c       	rla	r12		
    928c:	0d 6d       	rlc	r13		
    928e:	0c 5c       	rla	r12		
    9290:	0d 6d       	rlc	r13		
    9292:	0a 4c       	mov	r12,	r10	
    9294:	0b 4d       	mov	r13,	r11	
    9296:	0a d3       	bis	#0,	r10	;r3 As==00
    9298:	3b d0 00 40 	bis	#16384,	r11	;#0x4000
    929c:	8e 4a 04 00 	mov	r10,	4(r14)	;0x0004(r14)
    92a0:	8e 4b 06 00 	mov	r11,	6(r14)	;0x0006(r14)
    92a4:	3a 41       	pop	r10		
    92a6:	3b 41       	pop	r11		
    92a8:	30 41       	ret			
    92aa:	0b 93       	tst	r11		
    92ac:	ad 23       	jnz	$-164    	;abs 0x9208
    92ae:	ee 43 00 00 	mov.b	#2,	0(r14)	;r3 As==10, 0x0000(r14)
    92b2:	3a 41       	pop	r10		
    92b4:	3b 41       	pop	r11		
    92b6:	30 41       	ret			
    92b8:	0a 93       	tst	r10		
    92ba:	0c 24       	jz	$+26     	;abs 0x92d4
    92bc:	0c 4a       	mov	r10,	r12	
    92be:	0d 4b       	mov	r11,	r13	
    92c0:	0c f3       	and	#0,	r12	;r3 As==00
    92c2:	3d f0 10 00 	and	#16,	r13	;#0x0010
    92c6:	0c 93       	tst	r12		
    92c8:	02 20       	jnz	$+6      	;abs 0x92ce
    92ca:	0d 93       	tst	r13		
    92cc:	08 24       	jz	$+18     	;abs 0x92de
    92ce:	de 43 00 00 	mov.b	#1,	0(r14)	;r3 As==01, 0x0000(r14)
    92d2:	e4 3f       	jmp	$-54     	;abs 0x929c
    92d4:	0b 93       	tst	r11		
    92d6:	f2 23       	jnz	$-26     	;abs 0x92bc
    92d8:	ee 42 00 00 	mov.b	#4,	0(r14)	;r2 As==10, 0x0000(r14)
    92dc:	e3 3f       	jmp	$-56     	;abs 0x92a4
    92de:	ce 43 00 00 	mov.b	#0,	0(r14)	;r3 As==00, 0x0000(r14)
    92e2:	dc 3f       	jmp	$-70     	;abs 0x929c

000092e4 <__fpcmp_parts_f>:
    92e4:	0b 12       	push	r11		
    92e6:	6d 4f       	mov.b	@r15,	r13	
    92e8:	6d 93       	cmp.b	#2,	r13	;r3 As==10
    92ea:	12 28       	jnc	$+38     	;abs 0x9310
    92ec:	6c 4e       	mov.b	@r14,	r12	
    92ee:	6c 93       	cmp.b	#2,	r12	;r3 As==10
    92f0:	0f 28       	jnc	$+32     	;abs 0x9310
    92f2:	6d 92       	cmp.b	#4,	r13	;r2 As==10
    92f4:	41 24       	jz	$+132    	;abs 0x9378
    92f6:	6c 92       	cmp.b	#4,	r12	;r2 As==10
    92f8:	11 24       	jz	$+36     	;abs 0x931c
    92fa:	6d 93       	cmp.b	#2,	r13	;r3 As==10
    92fc:	0d 24       	jz	$+28     	;abs 0x9318
    92fe:	6c 93       	cmp.b	#2,	r12	;r3 As==10
    9300:	14 24       	jz	$+42     	;abs 0x932a
    9302:	5d 4f 01 00 	mov.b	1(r15),	r13	;0x0001(r15)
    9306:	5d 9e 01 00 	cmp.b	1(r14),	r13	;0x0001(r14)
    930a:	14 24       	jz	$+42     	;abs 0x9334
    930c:	4d 93       	tst.b	r13		
    930e:	09 20       	jnz	$+20     	;abs 0x9322
    9310:	1e 43       	mov	#1,	r14	;r3 As==01
    9312:	0f 4e       	mov	r14,	r15	
    9314:	3b 41       	pop	r11		
    9316:	30 41       	ret			
    9318:	6c 93       	cmp.b	#2,	r12	;r3 As==10
    931a:	28 24       	jz	$+82     	;abs 0x936c
    931c:	ce 93 01 00 	tst.b	1(r14)		;0x0001(r14)
    9320:	f7 23       	jnz	$-16     	;abs 0x9310
    9322:	3e 43       	mov	#-1,	r14	;r3 As==11
    9324:	0f 4e       	mov	r14,	r15	
    9326:	3b 41       	pop	r11		
    9328:	30 41       	ret			
    932a:	cf 93 01 00 	tst.b	1(r15)		;0x0001(r15)
    932e:	f0 27       	jz	$-30     	;abs 0x9310
    9330:	3e 43       	mov	#-1,	r14	;r3 As==11
    9332:	f8 3f       	jmp	$-14     	;abs 0x9324
    9334:	1b 4f 02 00 	mov	2(r15),	r11	;0x0002(r15)
    9338:	1c 4e 02 00 	mov	2(r14),	r12	;0x0002(r14)
    933c:	0c 9b       	cmp	r11,	r12	
    933e:	e6 3b       	jl	$-50     	;abs 0x930c
    9340:	0b 9c       	cmp	r12,	r11	
    9342:	16 38       	jl	$+46     	;abs 0x9370
    9344:	1b 4f 04 00 	mov	4(r15),	r11	;0x0004(r15)
    9348:	1f 4f 06 00 	mov	6(r15),	r15	;0x0006(r15)
    934c:	1c 4e 04 00 	mov	4(r14),	r12	;0x0004(r14)
    9350:	1e 4e 06 00 	mov	6(r14),	r14	;0x0006(r14)
    9354:	0e 9f       	cmp	r15,	r14	
    9356:	da 2b       	jnc	$-74     	;abs 0x930c
    9358:	0f 9e       	cmp	r14,	r15	
    935a:	02 28       	jnc	$+6      	;abs 0x9360
    935c:	0c 9b       	cmp	r11,	r12	
    935e:	d6 2b       	jnc	$-82     	;abs 0x930c
    9360:	0f 9e       	cmp	r14,	r15	
    9362:	06 28       	jnc	$+14     	;abs 0x9370
    9364:	0e 9f       	cmp	r15,	r14	
    9366:	02 28       	jnc	$+6      	;abs 0x936c
    9368:	0b 9c       	cmp	r12,	r11	
    936a:	02 28       	jnc	$+6      	;abs 0x9370
    936c:	0e 43       	clr	r14		
    936e:	d1 3f       	jmp	$-92     	;abs 0x9312
    9370:	4d 93       	tst.b	r13		
    9372:	ce 23       	jnz	$-98     	;abs 0x9310
    9374:	3e 43       	mov	#-1,	r14	;r3 As==11
    9376:	d6 3f       	jmp	$-82     	;abs 0x9324
    9378:	6c 92       	cmp.b	#4,	r12	;r2 As==10
    937a:	d7 23       	jnz	$-80     	;abs 0x932a
    937c:	5e 4e 01 00 	mov.b	1(r14),	r14	;0x0001(r14)
    9380:	5f 4f 01 00 	mov.b	1(r15),	r15	;0x0001(r15)
    9384:	0e 8f       	sub	r15,	r14	
    9386:	c5 3f       	jmp	$-116    	;abs 0x9312

00009388 <memcmp>:
    9388:	0b 12       	push	r11		
    938a:	0d 93       	tst	r13		
    938c:	0a 24       	jz	$+22     	;abs 0x93a2
    938e:	7b 4f       	mov.b	@r15+,	r11	
    9390:	7c 4e       	mov.b	@r14+,	r12	
    9392:	4b 9c       	cmp.b	r12,	r11	
    9394:	04 24       	jz	$+10     	;abs 0x939e
    9396:	4f 4b       	mov.b	r11,	r15	
    9398:	4e 4c       	mov.b	r12,	r14	
    939a:	0f 8e       	sub	r14,	r15	
    939c:	03 3c       	jmp	$+8      	;abs 0x93a4
    939e:	3d 53       	add	#-1,	r13	;r3 As==11
    93a0:	f4 3f       	jmp	$-22     	;abs 0x938a
    93a2:	0f 43       	clr	r15		
    93a4:	3b 41       	pop	r11		
    93a6:	30 41       	ret			

000093a8 <memcpy>:
    93a8:	0b 12       	push	r11		
    93aa:	0a 12       	push	r10		
    93ac:	09 12       	push	r9		
    93ae:	08 12       	push	r8		
    93b0:	07 12       	push	r7		
    93b2:	0d 93       	tst	r13		
    93b4:	70 24       	jz	$+226    	;abs 0x9496
    93b6:	0f 9e       	cmp	r14,	r15	
    93b8:	6e 24       	jz	$+222    	;abs 0x9496
    93ba:	34 2c       	jc	$+106    	;abs 0x9424
    93bc:	0c 4e       	mov	r14,	r12	
    93be:	0c df       	bis	r15,	r12	
    93c0:	1c f3       	and	#1,	r12	;r3 As==01
    93c2:	1b 24       	jz	$+56     	;abs 0x93fa
    93c4:	0c 4e       	mov	r14,	r12	
    93c6:	0c ef       	xor	r15,	r12	
    93c8:	1c f3       	and	#1,	r12	;r3 As==01
    93ca:	07 20       	jnz	$+16     	;abs 0x93da
    93cc:	2d 93       	cmp	#2,	r13	;r3 As==10
    93ce:	07 28       	jnc	$+16     	;abs 0x93de
    93d0:	0b 4e       	mov	r14,	r11	
    93d2:	1b f3       	and	#1,	r11	;r3 As==01
    93d4:	2c 43       	mov	#2,	r12	;r3 As==10
    93d6:	0c 8b       	sub	r11,	r12	
    93d8:	03 3c       	jmp	$+8      	;abs 0x93e0
    93da:	0c 4d       	mov	r13,	r12	
    93dc:	01 3c       	jmp	$+4      	;abs 0x93e0
    93de:	1c 43       	mov	#1,	r12	;r3 As==01
    93e0:	0d 8c       	sub	r12,	r13	
    93e2:	0a 4c       	mov	r12,	r10	
    93e4:	09 4e       	mov	r14,	r9	
    93e6:	0b 4f       	mov	r15,	r11	
    93e8:	fb 49 00 00 	mov.b	@r9+,	0(r11)	;0x0000(r11)
    93ec:	1b 53       	inc	r11		
    93ee:	3a 53       	add	#-1,	r10	;r3 As==11
    93f0:	fb 23       	jnz	$-8      	;abs 0x93e8
    93f2:	0a 4f       	mov	r15,	r10	
    93f4:	0a 5c       	add	r12,	r10	
    93f6:	0e 5c       	add	r12,	r14	
    93f8:	01 3c       	jmp	$+4      	;abs 0x93fc
    93fa:	0a 4f       	mov	r15,	r10	
    93fc:	0b 4d       	mov	r13,	r11	
    93fe:	12 c3       	clrc			
    9400:	0b 10       	rrc	r11		
    9402:	0b 24       	jz	$+24     	;abs 0x941a
    9404:	09 4b       	mov	r11,	r9	
    9406:	08 4e       	mov	r14,	r8	
    9408:	0c 4a       	mov	r10,	r12	
    940a:	bc 48 00 00 	mov	@r8+,	0(r12)	;0x0000(r12)
    940e:	2c 53       	incd	r12		
    9410:	39 53       	add	#-1,	r9	;r3 As==11
    9412:	fb 23       	jnz	$-8      	;abs 0x940a
    9414:	0b 5b       	rla	r11		
    9416:	0e 5b       	add	r11,	r14	
    9418:	0a 5b       	add	r11,	r10	
    941a:	1d f3       	and	#1,	r13	;r3 As==01
    941c:	3c 24       	jz	$+122    	;abs 0x9496
    941e:	ea 4e 00 00 	mov.b	@r14,	0(r10)	;0x0000(r10)
    9422:	39 3c       	jmp	$+116    	;abs 0x9496
    9424:	0e 5d       	add	r13,	r14	
    9426:	0c 4f       	mov	r15,	r12	
    9428:	0c 5d       	add	r13,	r12	
    942a:	0b 4c       	mov	r12,	r11	
    942c:	0b de       	bis	r14,	r11	
    942e:	1b f3       	and	#1,	r11	;r3 As==01
    9430:	1b 24       	jz	$+56     	;abs 0x9468
    9432:	0b 4c       	mov	r12,	r11	
    9434:	0b ee       	xor	r14,	r11	
    9436:	1b f3       	and	#1,	r11	;r3 As==01
    9438:	06 20       	jnz	$+14     	;abs 0x9446
    943a:	3d 90 03 00 	cmp	#3,	r13	;#0x0003
    943e:	03 28       	jnc	$+8      	;abs 0x9446
    9440:	0b 4e       	mov	r14,	r11	
    9442:	1b f3       	and	#1,	r11	;r3 As==01
    9444:	01 3c       	jmp	$+4      	;abs 0x9448
    9446:	0b 4d       	mov	r13,	r11	
    9448:	0d 8b       	sub	r11,	r13	
    944a:	09 4e       	mov	r14,	r9	
    944c:	0a 4c       	mov	r12,	r10	
    944e:	08 4b       	mov	r11,	r8	
    9450:	08 8c       	sub	r12,	r8	
    9452:	3a 53       	add	#-1,	r10	;r3 As==11
    9454:	39 53       	add	#-1,	r9	;r3 As==11
    9456:	ea 49 00 00 	mov.b	@r9,	0(r10)	;0x0000(r10)
    945a:	07 4a       	mov	r10,	r7	
    945c:	07 58       	add	r8,	r7	
    945e:	f9 23       	jnz	$-12     	;abs 0x9452
    9460:	3b e3       	inv	r11		
    9462:	1b 53       	inc	r11		
    9464:	0c 5b       	add	r11,	r12	
    9466:	0e 5b       	add	r11,	r14	
    9468:	0b 4d       	mov	r13,	r11	
    946a:	12 c3       	clrc			
    946c:	0b 10       	rrc	r11		
    946e:	0e 24       	jz	$+30     	;abs 0x948c
    9470:	0a 4b       	mov	r11,	r10	
    9472:	08 4e       	mov	r14,	r8	
    9474:	09 4c       	mov	r12,	r9	
    9476:	28 83       	decd	r8		
    9478:	29 83       	decd	r9		
    947a:	a9 48 00 00 	mov	@r8,	0(r9)	;0x0000(r9)
    947e:	3a 53       	add	#-1,	r10	;r3 As==11
    9480:	fa 23       	jnz	$-10     	;abs 0x9476
    9482:	0a 8b       	sub	r11,	r10	
    9484:	0b 4a       	mov	r10,	r11	
    9486:	0b 5b       	rla	r11		
    9488:	0e 5b       	add	r11,	r14	
    948a:	0c 5b       	add	r11,	r12	
    948c:	1d f3       	and	#1,	r13	;r3 As==01
    948e:	03 24       	jz	$+8      	;abs 0x9496
    9490:	dc 4e ff ff ff ff 	mov.b	-1(r14),-1(r12)	;0xffff(r14), 0xffff(r12)
    9496:	37 41       	pop	r7		
    9498:	38 41       	pop	r8		
    949a:	39 41       	pop	r9		
    949c:	3a 41       	pop	r10		
    949e:	3b 41       	pop	r11		
    94a0:	30 41       	ret			

000094a2 <memset>:
    94a2:	0b 12       	push	r11		
    94a4:	0a 12       	push	r10		
    94a6:	09 12       	push	r9		
    94a8:	08 12       	push	r8		
    94aa:	3d 90 06 00 	cmp	#6,	r13	;#0x0006
    94ae:	09 2c       	jc	$+20     	;abs 0x94c2
    94b0:	0c 4f       	mov	r15,	r12	
    94b2:	04 3c       	jmp	$+10     	;abs 0x94bc
    94b4:	cc 4e 00 00 	mov.b	r14,	0(r12)	;0x0000(r12)
    94b8:	1c 53       	inc	r12		
    94ba:	3d 53       	add	#-1,	r13	;r3 As==11
    94bc:	0d 93       	tst	r13		
    94be:	fa 23       	jnz	$-10     	;abs 0x94b4
    94c0:	20 3c       	jmp	$+66     	;abs 0x9502
    94c2:	4e 4e       	mov.b	r14,	r14	
    94c4:	4b 4e       	mov.b	r14,	r11	
    94c6:	0b 93       	tst	r11		
    94c8:	03 24       	jz	$+8      	;abs 0x94d0
    94ca:	0c 4b       	mov	r11,	r12	
    94cc:	8c 10       	swpb	r12		
    94ce:	0b dc       	bis	r12,	r11	
    94d0:	1f b3       	bit	#1,	r15	;r3 As==01
    94d2:	06 24       	jz	$+14     	;abs 0x94e0
    94d4:	3d 53       	add	#-1,	r13	;r3 As==11
    94d6:	cf 4e 00 00 	mov.b	r14,	0(r15)	;0x0000(r15)
    94da:	09 4f       	mov	r15,	r9	
    94dc:	19 53       	inc	r9		
    94de:	01 3c       	jmp	$+4      	;abs 0x94e2
    94e0:	09 4f       	mov	r15,	r9	
    94e2:	0c 4d       	mov	r13,	r12	
    94e4:	12 c3       	clrc			
    94e6:	0c 10       	rrc	r12		
    94e8:	0a 49       	mov	r9,	r10	
    94ea:	08 4c       	mov	r12,	r8	
    94ec:	8a 4b 00 00 	mov	r11,	0(r10)	;0x0000(r10)
    94f0:	2a 53       	incd	r10		
    94f2:	38 53       	add	#-1,	r8	;r3 As==11
    94f4:	fb 23       	jnz	$-8      	;abs 0x94ec
    94f6:	0c 5c       	rla	r12		
    94f8:	0c 59       	add	r9,	r12	
    94fa:	1d f3       	and	#1,	r13	;r3 As==01
    94fc:	02 24       	jz	$+6      	;abs 0x9502
    94fe:	cc 4e 00 00 	mov.b	r14,	0(r12)	;0x0000(r12)
    9502:	38 41       	pop	r8		
    9504:	39 41       	pop	r9		
    9506:	3a 41       	pop	r10		
    9508:	3b 41       	pop	r11		
    950a:	30 41       	ret			

0000950c <printf>:
    950c:	0d 41       	mov	r1,	r13	
    950e:	2d 53       	incd	r13		
    9510:	3e 4d       	mov	@r13+,	r14	
    9512:	3f 40 cc 82 	mov	#-32052,r15	;#0x82cc
    9516:	b0 12 c2 96 	call	#0x96c2	
    951a:	30 41       	ret			

0000951c <vprintf>:
    951c:	0d 4e       	mov	r14,	r13	
    951e:	0e 4f       	mov	r15,	r14	
    9520:	3f 40 cc 82 	mov	#-32052,r15	;#0x82cc
    9524:	b0 12 c2 96 	call	#0x96c2	
    9528:	30 41       	ret			

0000952a <print_field>:
    952a:	0b 12       	push	r11		
    952c:	0a 12       	push	r10		
    952e:	09 12       	push	r9		
    9530:	08 12       	push	r8		
    9532:	07 12       	push	r7		
    9534:	06 12       	push	r6		
    9536:	05 12       	push	r5		
    9538:	04 12       	push	r4		
    953a:	31 82       	sub	#8,	r1	;r2 As==11
    953c:	08 4f       	mov	r15,	r8	
    953e:	81 4e 04 00 	mov	r14,	4(r1)	;0x0004(r1)
    9542:	09 4d       	mov	r13,	r9	
    9544:	1f 41 1a 00 	mov	26(r1),	r15	;0x001a(r1)
    9548:	1d 41 1c 00 	mov	28(r1),	r13	;0x001c(r1)
    954c:	4c 4d       	mov.b	r13,	r12	
    954e:	04 4d       	mov	r13,	r4	
    9550:	84 10       	swpb	r4		
    9552:	45 44       	mov.b	r4,	r5	
    9554:	4e 4f       	mov.b	r15,	r14	
    9556:	7e b0 40 00 	bit.b	#64,	r14	;#0x0040
    955a:	11 24       	jz	$+36     	;abs 0x957e
    955c:	f1 40 30 00 00 00 	mov.b	#48,	0(r1)	;#0x0030, 0x0000(r1)
    9562:	0e 4f       	mov	r15,	r14	
    9564:	8e 10       	swpb	r14		
    9566:	5e f3       	and.b	#1,	r14	;r3 As==01
    9568:	03 24       	jz	$+8      	;abs 0x9570
    956a:	7e 40 58 00 	mov.b	#88,	r14	;#0x0058
    956e:	02 3c       	jmp	$+6      	;abs 0x9574
    9570:	7e 40 78 00 	mov.b	#120,	r14	;#0x0078
    9574:	c1 4e 01 00 	mov.b	r14,	1(r1)	;0x0001(r1)
    9578:	0c 41       	mov	r1,	r12	
    957a:	2c 53       	incd	r12		
    957c:	0f 3c       	jmp	$+32     	;abs 0x959c
    957e:	7e f0 20 00 	and.b	#32,	r14	;#0x0020
    9582:	04 24       	jz	$+10     	;abs 0x958c
    9584:	f1 40 30 00 00 00 	mov.b	#48,	0(r1)	;#0x0030, 0x0000(r1)
    958a:	04 3c       	jmp	$+10     	;abs 0x9594
    958c:	4c 93       	tst.b	r12		
    958e:	05 24       	jz	$+12     	;abs 0x959a
    9590:	c1 4d 00 00 	mov.b	r13,	0(r1)	;0x0000(r1)
    9594:	0c 41       	mov	r1,	r12	
    9596:	1c 53       	inc	r12		
    9598:	01 3c       	jmp	$+4      	;abs 0x959c
    959a:	0c 41       	mov	r1,	r12	
    959c:	0a 4c       	mov	r12,	r10	
    959e:	8c 10       	swpb	r12		
    95a0:	8c 11       	sxt	r12		
    95a2:	8c 10       	swpb	r12		
    95a4:	8c 11       	sxt	r12		
    95a6:	0b 4c       	mov	r12,	r11	
    95a8:	06 41       	mov	r1,	r6	
    95aa:	0c 41       	mov	r1,	r12	
    95ac:	8c 10       	swpb	r12		
    95ae:	8c 11       	sxt	r12		
    95b0:	8c 10       	swpb	r12		
    95b2:	8c 11       	sxt	r12		
    95b4:	07 4c       	mov	r12,	r7	
    95b6:	0a 86       	sub	r6,	r10	
    95b8:	0b 77       	subc	r7,	r11	
    95ba:	0e 4f       	mov	r15,	r14	
    95bc:	8e 10       	swpb	r14		
    95be:	c1 4e 02 00 	mov.b	r14,	2(r1)	;0x0002(r1)
    95c2:	6e f2       	and.b	#4,	r14	;r2 As==10
    95c4:	02 24       	jz	$+6      	;abs 0x95ca
    95c6:	07 45       	mov	r5,	r7	
    95c8:	01 3c       	jmp	$+4      	;abs 0x95cc
    95ca:	37 43       	mov	#-1,	r7	;r3 As==11
    95cc:	4f 4f       	mov.b	r15,	r15	
    95ce:	7f b0 10 00 	bit.b	#16,	r15	;#0x0010
    95d2:	3c 20       	jnz	$+122    	;abs 0x964c
    95d4:	1d 41 04 00 	mov	4(r1),	r13	;0x0004(r1)
    95d8:	3d 53       	add	#-1,	r13	;r3 As==11
    95da:	1d 53       	inc	r13		
    95dc:	cd 93 00 00 	tst.b	0(r13)		;0x0000(r13)
    95e0:	fc 23       	jnz	$-6      	;abs 0x95da
    95e2:	1d 81 04 00 	sub	4(r1),	r13	;0x0004(r1)
    95e6:	09 9a       	cmp	r10,	r9	
    95e8:	02 28       	jnc	$+6      	;abs 0x95ee
    95ea:	09 8a       	sub	r10,	r9	
    95ec:	01 3c       	jmp	$+4      	;abs 0x95f0
    95ee:	09 43       	clr	r9		
    95f0:	e1 b3 02 00 	bit.b	#2,	2(r1)	;r3 As==10, 0x0002(r1)
    95f4:	05 24       	jz	$+12     	;abs 0x9600
    95f6:	09 95       	cmp	r5,	r9	
    95f8:	02 28       	jnc	$+6      	;abs 0x95fe
    95fa:	09 85       	sub	r5,	r9	
    95fc:	01 3c       	jmp	$+4      	;abs 0x9600
    95fe:	09 43       	clr	r9		
    9600:	05 4d       	mov	r13,	r5	
    9602:	07 9d       	cmp	r13,	r7	
    9604:	01 2c       	jc	$+4      	;abs 0x9608
    9606:	05 47       	mov	r7,	r5	
    9608:	4f 93       	tst.b	r15		
    960a:	0d 38       	jl	$+28     	;abs 0x9626
    960c:	f1 40 20 00 06 00 	mov.b	#32,	6(r1)	;#0x0020, 0x0006(r1)
    9612:	06 43       	clr	r6		
    9614:	0b 43       	clr	r11		
    9616:	0e 3c       	jmp	$+30     	;abs 0x9634
    9618:	0f 41       	mov	r1,	r15	
    961a:	0f 56       	add	r6,	r15	
    961c:	6f 4f       	mov.b	@r15,	r15	
    961e:	8f 11       	sxt	r15		
    9620:	16 53       	inc	r6		
    9622:	88 12       	call	r8		
    9624:	01 3c       	jmp	$+4      	;abs 0x9628
    9626:	06 43       	clr	r6		
    9628:	06 9a       	cmp	r10,	r6	
    962a:	f6 3b       	jl	$-18     	;abs 0x9618
    962c:	0b 4a       	mov	r10,	r11	
    962e:	f1 40 30 00 06 00 	mov.b	#48,	6(r1)	;#0x0030, 0x0006(r1)
    9634:	05 8b       	sub	r11,	r5	
    9636:	05 3c       	jmp	$+12     	;abs 0x9642
    9638:	5f 41 06 00 	mov.b	6(r1),	r15	;0x0006(r1)
    963c:	8f 11       	sxt	r15		
    963e:	88 12       	call	r8		
    9640:	1b 53       	inc	r11		
    9642:	0f 45       	mov	r5,	r15	
    9644:	0f 5b       	add	r11,	r15	
    9646:	0f 99       	cmp	r9,	r15	
    9648:	f7 2b       	jnc	$-16     	;abs 0x9638
    964a:	0a 3c       	jmp	$+22     	;abs 0x9660
    964c:	06 43       	clr	r6		
    964e:	0b 43       	clr	r11		
    9650:	07 3c       	jmp	$+16     	;abs 0x9660
    9652:	1b 53       	inc	r11		
    9654:	0f 41       	mov	r1,	r15	
    9656:	0f 56       	add	r6,	r15	
    9658:	6f 4f       	mov.b	@r15,	r15	
    965a:	8f 11       	sxt	r15		
    965c:	16 53       	inc	r6		
    965e:	88 12       	call	r8		
    9660:	06 9a       	cmp	r10,	r6	
    9662:	f7 3b       	jl	$-16     	;abs 0x9652
    9664:	e1 b3 02 00 	bit.b	#2,	2(r1)	;r3 As==10, 0x0002(r1)
    9668:	02 24       	jz	$+6      	;abs 0x966e
    966a:	4a 44       	mov.b	r4,	r10	
    966c:	08 3c       	jmp	$+18     	;abs 0x967e
    966e:	1a 41 04 00 	mov	4(r1),	r10	;0x0004(r1)
    9672:	0a 8b       	sub	r11,	r10	
    9674:	0d 3c       	jmp	$+28     	;abs 0x9690
    9676:	3f 40 30 00 	mov	#48,	r15	;#0x0030
    967a:	88 12       	call	r8		
    967c:	7a 53       	add.b	#-1,	r10	;r3 As==11
    967e:	4a 93       	tst.b	r10		
    9680:	fa 23       	jnz	$-10     	;abs 0x9676
    9682:	44 44       	mov.b	r4,	r4	
    9684:	0b 54       	add	r4,	r11	
    9686:	f3 3f       	jmp	$-24     	;abs 0x966e
    9688:	37 53       	add	#-1,	r7	;r3 As==11
    968a:	8f 11       	sxt	r15		
    968c:	88 12       	call	r8		
    968e:	1b 53       	inc	r11		
    9690:	0f 4a       	mov	r10,	r15	
    9692:	0f 5b       	add	r11,	r15	
    9694:	6f 4f       	mov.b	@r15,	r15	
    9696:	4f 93       	tst.b	r15		
    9698:	07 24       	jz	$+16     	;abs 0x96a8
    969a:	07 93       	tst	r7		
    969c:	f5 23       	jnz	$-20     	;abs 0x9688
    969e:	04 3c       	jmp	$+10     	;abs 0x96a8
    96a0:	3f 40 20 00 	mov	#32,	r15	;#0x0020
    96a4:	88 12       	call	r8		
    96a6:	1b 53       	inc	r11		
    96a8:	0b 99       	cmp	r9,	r11	
    96aa:	fa 2b       	jnc	$-10     	;abs 0x96a0
    96ac:	0f 4b       	mov	r11,	r15	
    96ae:	31 52       	add	#8,	r1	;r2 As==11
    96b0:	34 41       	pop	r4		
    96b2:	35 41       	pop	r5		
    96b4:	36 41       	pop	r6		
    96b6:	37 41       	pop	r7		
    96b8:	38 41       	pop	r8		
    96ba:	39 41       	pop	r9		
    96bc:	3a 41       	pop	r10		
    96be:	3b 41       	pop	r11		
    96c0:	30 41       	ret			

000096c2 <vuprintf>:
    96c2:	0b 12       	push	r11		
    96c4:	0a 12       	push	r10		
    96c6:	09 12       	push	r9		
    96c8:	08 12       	push	r8		
    96ca:	07 12       	push	r7		
    96cc:	06 12       	push	r6		
    96ce:	05 12       	push	r5		
    96d0:	04 12       	push	r4		
    96d2:	31 50 b6 ff 	add	#-74,	r1	;#0xffb6
    96d6:	81 4f 3a 00 	mov	r15,	58(r1)	;0x003a(r1)
    96da:	06 4e       	mov	r14,	r6	
    96dc:	05 4d       	mov	r13,	r5	
    96de:	81 4e 3e 00 	mov	r14,	62(r1)	;0x003e(r1)
    96e2:	c1 43 2f 00 	mov.b	#0,	47(r1)	;r3 As==00, 0x002f(r1)
    96e6:	c1 43 2b 00 	mov.b	#0,	43(r1)	;r3 As==00, 0x002b(r1)
    96ea:	c1 43 2e 00 	mov.b	#0,	46(r1)	;r3 As==00, 0x002e(r1)
    96ee:	c1 43 2a 00 	mov.b	#0,	42(r1)	;r3 As==00, 0x002a(r1)
    96f2:	81 43 30 00 	mov	#0,	48(r1)	;r3 As==00, 0x0030(r1)
    96f6:	81 43 26 00 	mov	#0,	38(r1)	;r3 As==00, 0x0026(r1)
    96fa:	07 43       	clr	r7		
    96fc:	81 43 2c 00 	mov	#0,	44(r1)	;r3 As==00, 0x002c(r1)
    9700:	0e 41       	mov	r1,	r14	
    9702:	3e 50 1c 00 	add	#28,	r14	;#0x001c
    9706:	81 4e 1c 00 	mov	r14,	28(r1)	;0x001c(r1)
    970a:	30 40 3c 9d 	br	#0x9d3c	
    970e:	0f 46       	mov	r6,	r15	
    9710:	1f 53       	inc	r15		
    9712:	81 4f 40 00 	mov	r15,	64(r1)	;0x0040(r1)
    9716:	07 93       	tst	r7		
    9718:	1e 20       	jnz	$+62     	;abs 0x9756
    971a:	7e 90 25 00 	cmp.b	#37,	r14	;#0x0025
    971e:	13 20       	jnz	$+40     	;abs 0x9746
    9720:	81 43 00 00 	mov	#0,	0(r1)	;r3 As==00, 0x0000(r1)
    9724:	81 43 02 00 	mov	#0,	2(r1)	;r3 As==00, 0x0002(r1)
    9728:	81 46 3e 00 	mov	r6,	62(r1)	;0x003e(r1)
    972c:	c1 43 2f 00 	mov.b	#0,	47(r1)	;r3 As==00, 0x002f(r1)
    9730:	c1 43 2b 00 	mov.b	#0,	43(r1)	;r3 As==00, 0x002b(r1)
    9734:	c1 43 2e 00 	mov.b	#0,	46(r1)	;r3 As==00, 0x002e(r1)
    9738:	c1 43 2a 00 	mov.b	#0,	42(r1)	;r3 As==00, 0x002a(r1)
    973c:	81 43 30 00 	mov	#0,	48(r1)	;r3 As==00, 0x0030(r1)
    9740:	30 40 32 9d 	br	#0x9d32	
    9744:	05 47       	mov	r7,	r5	
    9746:	8e 11       	sxt	r14		
    9748:	0f 4e       	mov	r14,	r15	
    974a:	91 12 3c 00 	call	60(r1)		;0x003c(r1)
    974e:	91 53 2c 00 	inc	44(r1)		;0x002c(r1)
    9752:	30 40 18 9d 	br	#0x9d18	
    9756:	7e 90 63 00 	cmp.b	#99,	r14	;#0x0063
    975a:	c5 24       	jz	$+396    	;abs 0x98e6
    975c:	7e 90 64 00 	cmp.b	#100,	r14	;#0x0064
    9760:	27 34       	jge	$+80     	;abs 0x97b0
    9762:	7e 90 30 00 	cmp.b	#48,	r14	;#0x0030
    9766:	94 24       	jz	$+298    	;abs 0x9890
    9768:	7e 90 31 00 	cmp.b	#49,	r14	;#0x0031
    976c:	1a 34       	jge	$+54     	;abs 0x97a2
    976e:	7e 90 2a 00 	cmp.b	#42,	r14	;#0x002a
    9772:	77 24       	jz	$+240    	;abs 0x9862
    9774:	7e 90 2b 00 	cmp.b	#43,	r14	;#0x002b
    9778:	0a 34       	jge	$+22     	;abs 0x978e
    977a:	7e 90 23 00 	cmp.b	#35,	r14	;#0x0023
    977e:	42 24       	jz	$+134    	;abs 0x9804
    9780:	7e 90 25 00 	cmp.b	#37,	r14	;#0x0025
    9784:	e0 27       	jz	$-62     	;abs 0x9746
    9786:	7e 90 20 00 	cmp.b	#32,	r14	;#0x0020
    978a:	32 20       	jnz	$+102    	;abs 0x97f0
    978c:	56 3c       	jmp	$+174    	;abs 0x983a
    978e:	7e 90 2d 00 	cmp.b	#45,	r14	;#0x002d
    9792:	49 24       	jz	$+148    	;abs 0x9826
    9794:	7e 90 2e 00 	cmp.b	#46,	r14	;#0x002e
    9798:	5b 24       	jz	$+184    	;abs 0x9850
    979a:	7e 90 2b 00 	cmp.b	#43,	r14	;#0x002b
    979e:	28 20       	jnz	$+82     	;abs 0x97f0
    97a0:	47 3c       	jmp	$+144    	;abs 0x9830
    97a2:	7e 90 3a 00 	cmp.b	#58,	r14	;#0x003a
    97a6:	8c 38       	jl	$+282    	;abs 0x98c0
    97a8:	7e 90 58 00 	cmp.b	#88,	r14	;#0x0058
    97ac:	21 20       	jnz	$+68     	;abs 0x97f0
    97ae:	e9 3c       	jmp	$+468    	;abs 0x9982
    97b0:	7e 90 6f 00 	cmp.b	#111,	r14	;#0x006f
    97b4:	24 24       	jz	$+74     	;abs 0x97fe
    97b6:	7e 90 70 00 	cmp.b	#112,	r14	;#0x0070
    97ba:	0a 34       	jge	$+22     	;abs 0x97d0
    97bc:	7e 90 69 00 	cmp.b	#105,	r14	;#0x0069
    97c0:	e3 24       	jz	$+456    	;abs 0x9988
    97c2:	7e 90 6c 00 	cmp.b	#108,	r14	;#0x006c
    97c6:	22 24       	jz	$+70     	;abs 0x980c
    97c8:	7e 90 64 00 	cmp.b	#100,	r14	;#0x0064
    97cc:	11 20       	jnz	$+36     	;abs 0x97f0
    97ce:	dc 3c       	jmp	$+442    	;abs 0x9988
    97d0:	7e 90 73 00 	cmp.b	#115,	r14	;#0x0073
    97d4:	98 24       	jz	$+306    	;abs 0x9906
    97d6:	7e 90 74 00 	cmp.b	#116,	r14	;#0x0074
    97da:	04 34       	jge	$+10     	;abs 0x97e4
    97dc:	7e 90 70 00 	cmp.b	#112,	r14	;#0x0070
    97e0:	07 20       	jnz	$+16     	;abs 0x97f0
    97e2:	b8 3c       	jmp	$+370    	;abs 0x9954
    97e4:	7e 90 75 00 	cmp.b	#117,	r14	;#0x0075
    97e8:	d1 24       	jz	$+420    	;abs 0x998c
    97ea:	7e 90 78 00 	cmp.b	#120,	r14	;#0x0078
    97ee:	d2 24       	jz	$+422    	;abs 0x9994
    97f0:	19 41 3e 00 	mov	62(r1),	r9	;0x003e(r1)
    97f4:	18 41 2c 00 	mov	44(r1),	r8	;0x002c(r1)
    97f8:	08 89       	sub	r9,	r8	
    97fa:	30 40 06 9d 	br	#0x9d06	
    97fe:	b1 42 28 00 	mov	#8,	40(r1)	;r2 As==11, 0x0028(r1)
    9802:	cb 3c       	jmp	$+408    	;abs 0x999a
    9804:	f1 d2 00 00 	bis.b	#8,	0(r1)	;r2 As==11, 0x0000(r1)
    9808:	30 40 36 9d 	br	#0x9d36	
    980c:	69 41       	mov.b	@r1,	r9	
    980e:	59 f3       	and.b	#1,	r9	;r3 As==01
    9810:	6e 41       	mov.b	@r1,	r14	
    9812:	04 24       	jz	$+10     	;abs 0x981c
    9814:	7e f0 fe ff 	and.b	#-2,	r14	;#0xfffe
    9818:	6e d3       	bis.b	#2,	r14	;r3 As==10
    981a:	01 3c       	jmp	$+4      	;abs 0x981e
    981c:	5e d3       	bis.b	#1,	r14	;r3 As==01
    981e:	c1 4e 00 00 	mov.b	r14,	0(r1)	;0x0000(r1)
    9822:	30 40 36 9d 	br	#0x9d36	
    9826:	f1 d0 10 00 00 00 	bis.b	#16,	0(r1)	;#0x0010, 0x0000(r1)
    982c:	30 40 36 9d 	br	#0x9d36	
    9830:	f1 40 2b 00 02 00 	mov.b	#43,	2(r1)	;#0x002b, 0x0002(r1)
    9836:	30 40 36 9d 	br	#0x9d36	
    983a:	f1 90 2b 00 02 00 	cmp.b	#43,	2(r1)	;#0x002b, 0x0002(r1)
    9840:	02 20       	jnz	$+6      	;abs 0x9846
    9842:	30 40 36 9d 	br	#0x9d36	
    9846:	f1 40 20 00 02 00 	mov.b	#32,	2(r1)	;#0x0020, 0x0002(r1)
    984c:	30 40 36 9d 	br	#0x9d36	
    9850:	c1 93 2a 00 	tst.b	42(r1)		;0x002a(r1)
    9854:	02 24       	jz	$+6      	;abs 0x985a
    9856:	30 40 1c 9d 	br	#0x9d1c	
    985a:	d1 43 2e 00 	mov.b	#1,	46(r1)	;r3 As==01, 0x002e(r1)
    985e:	30 40 36 9d 	br	#0x9d36	
    9862:	0e 45       	mov	r5,	r14	
    9864:	2e 53       	incd	r14		
    9866:	2a 45       	mov	@r5,	r10	
    9868:	0a 93       	tst	r10		
    986a:	03 38       	jl	$+8      	;abs 0x9872
    986c:	81 4a 26 00 	mov	r10,	38(r1)	;0x0026(r1)
    9870:	0d 3c       	jmp	$+28     	;abs 0x988c
    9872:	c1 93 2e 00 	tst.b	46(r1)		;0x002e(r1)
    9876:	02 24       	jz	$+6      	;abs 0x987c
    9878:	30 40 2c 9d 	br	#0x9d2c	
    987c:	f1 d0 10 00 00 00 	bis.b	#16,	0(r1)	;#0x0010, 0x0000(r1)
    9882:	3a e3       	inv	r10		
    9884:	81 4a 26 00 	mov	r10,	38(r1)	;0x0026(r1)
    9888:	91 53 26 00 	inc	38(r1)		;0x0026(r1)
    988c:	05 4e       	mov	r14,	r5	
    988e:	27 3c       	jmp	$+80     	;abs 0x98de
    9890:	81 93 26 00 	tst	38(r1)		;0x0026(r1)
    9894:	15 20       	jnz	$+44     	;abs 0x98c0
    9896:	c1 93 2e 00 	tst.b	46(r1)		;0x002e(r1)
    989a:	12 20       	jnz	$+38     	;abs 0x98c0
    989c:	69 41       	mov.b	@r1,	r9	
    989e:	79 f0 10 00 	and.b	#16,	r9	;#0x0010
    98a2:	5e 43       	mov.b	#1,	r14	;r3 As==01
    98a4:	01 24       	jz	$+4      	;abs 0x98a8
    98a6:	4e 43       	clr.b	r14		
    98a8:	4e 4e       	mov.b	r14,	r14	
    98aa:	0e 11       	rra	r14		
    98ac:	0e 43       	clr	r14		
    98ae:	4e 10       	rrc.b	r14		
    98b0:	6a 41       	mov.b	@r1,	r10	
    98b2:	7a f0 7f 00 	and.b	#127,	r10	;#0x007f
    98b6:	4a de       	bis.b	r14,	r10	
    98b8:	c1 4a 00 00 	mov.b	r10,	0(r1)	;0x0000(r1)
    98bc:	30 40 36 9d 	br	#0x9d36	
    98c0:	1a 41 26 00 	mov	38(r1),	r10	;0x0026(r1)
    98c4:	0a 5a       	rla	r10		
    98c6:	0c 4a       	mov	r10,	r12	
    98c8:	0c 5c       	rla	r12		
    98ca:	0c 5c       	rla	r12		
    98cc:	0a 5c       	add	r12,	r10	
    98ce:	81 4a 26 00 	mov	r10,	38(r1)	;0x0026(r1)
    98d2:	b1 50 d0 ff 26 00 	add	#-48,	38(r1)	;#0xffd0, 0x0026(r1)
    98d8:	8e 11       	sxt	r14		
    98da:	81 5e 26 00 	add	r14,	38(r1)	;0x0026(r1)
    98de:	d1 43 2a 00 	mov.b	#1,	42(r1)	;r3 As==01, 0x002a(r1)
    98e2:	30 40 36 9d 	br	#0x9d36	
    98e6:	07 45       	mov	r5,	r7	
    98e8:	27 53       	incd	r7		
    98ea:	6e 45       	mov.b	@r5,	r14	
    98ec:	c1 93 2e 00 	tst.b	46(r1)		;0x002e(r1)
    98f0:	03 20       	jnz	$+8      	;abs 0x98f8
    98f2:	c1 93 2a 00 	tst.b	42(r1)		;0x002a(r1)
    98f6:	26 27       	jz	$-434    	;abs 0x9744
    98f8:	c1 4e 04 00 	mov.b	r14,	4(r1)	;0x0004(r1)
    98fc:	c1 43 05 00 	mov.b	#0,	5(r1)	;r3 As==00, 0x0005(r1)
    9900:	0e 41       	mov	r1,	r14	
    9902:	2e 52       	add	#4,	r14	;r2 As==10
    9904:	03 3c       	jmp	$+8      	;abs 0x990c
    9906:	07 45       	mov	r5,	r7	
    9908:	27 53       	incd	r7		
    990a:	2e 45       	mov	@r5,	r14	
    990c:	c1 93 2e 00 	tst.b	46(r1)		;0x002e(r1)
    9910:	07 24       	jz	$+16     	;abs 0x9920
    9912:	e1 d2 01 00 	bis.b	#4,	1(r1)	;r2 As==10, 0x0001(r1)
    9916:	1f 41 26 00 	mov	38(r1),	r15	;0x0026(r1)
    991a:	c1 4f 03 00 	mov.b	r15,	3(r1)	;0x0003(r1)
    991e:	06 3c       	jmp	$+14     	;abs 0x992c
    9920:	c1 93 2a 00 	tst.b	42(r1)		;0x002a(r1)
    9924:	03 24       	jz	$+8      	;abs 0x992c
    9926:	91 41 26 00 30 00 	mov	38(r1),	48(r1)	;0x0026(r1), 0x0030(r1)
    992c:	0e 93       	tst	r14		
    992e:	02 20       	jnz	$+6      	;abs 0x9934
    9930:	3e 40 a8 a1 	mov	#-24152,r14	;#0xa1a8
    9934:	11 12 04 00 	push	4(r1)		;0x0004(r1)
    9938:	11 12 04 00 	push	4(r1)		;0x0004(r1)
    993c:	1d 41 34 00 	mov	52(r1),	r13	;0x0034(r1)
    9940:	1f 41 3e 00 	mov	62(r1),	r15	;0x003e(r1)
    9944:	b0 12 2a 95 	call	#0x952a	
    9948:	21 52       	add	#4,	r1	;r2 As==10
    994a:	81 5f 2c 00 	add	r15,	44(r1)	;0x002c(r1)
    994e:	05 47       	mov	r7,	r5	
    9950:	30 40 18 9d 	br	#0x9d18	
    9954:	07 45       	mov	r5,	r7	
    9956:	27 53       	incd	r7		
    9958:	29 45       	mov	@r5,	r9	
    995a:	81 49 1e 00 	mov	r9,	30(r1)	;0x001e(r1)
    995e:	5e 43       	mov.b	#1,	r14	;r3 As==01
    9960:	09 93       	tst	r9		
    9962:	01 20       	jnz	$+4      	;abs 0x9966
    9964:	4e 43       	clr.b	r14		
    9966:	4e 5e       	rla.b	r14		
    9968:	4e 5e       	rla.b	r14		
    996a:	4e 5e       	rla.b	r14		
    996c:	6a 41       	mov.b	@r1,	r10	
    996e:	7a f0 f7 ff 	and.b	#-9,	r10	;#0xfff7
    9972:	4a de       	bis.b	r14,	r10	
    9974:	c1 4a 00 00 	mov.b	r10,	0(r1)	;0x0000(r1)
    9978:	05 47       	mov	r7,	r5	
    997a:	b1 40 10 00 28 00 	mov	#16,	40(r1)	;#0x0010, 0x0028(r1)
    9980:	53 3c       	jmp	$+168    	;abs 0x9a28
    9982:	d1 d3 01 00 	bis.b	#1,	1(r1)	;r3 As==01, 0x0001(r1)
    9986:	06 3c       	jmp	$+14     	;abs 0x9994
    9988:	e1 d2 00 00 	bis.b	#4,	0(r1)	;r2 As==10, 0x0000(r1)
    998c:	b1 40 0a 00 28 00 	mov	#10,	40(r1)	;#0x000a, 0x0028(r1)
    9992:	03 3c       	jmp	$+8      	;abs 0x999a
    9994:	b1 40 10 00 28 00 	mov	#16,	40(r1)	;#0x0010, 0x0028(r1)
    999a:	6b 41       	mov.b	@r1,	r11	
    999c:	6b b3       	bit.b	#2,	r11	;r3 As==10
    999e:	24 24       	jz	$+74     	;abs 0x99e8
    99a0:	0c 45       	mov	r5,	r12	
    99a2:	3c 52       	add	#8,	r12	;r2 As==11
    99a4:	28 45       	mov	@r5,	r8	
    99a6:	17 45 02 00 	mov	2(r5),	r7	;0x0002(r5)
    99aa:	16 45 04 00 	mov	4(r5),	r6	;0x0004(r5)
    99ae:	1b 45 06 00 	mov	6(r5),	r11	;0x0006(r5)
    99b2:	81 48 1e 00 	mov	r8,	30(r1)	;0x001e(r1)
    99b6:	81 47 20 00 	mov	r7,	32(r1)	;0x0020(r1)
    99ba:	81 46 22 00 	mov	r6,	34(r1)	;0x0022(r1)
    99be:	81 4b 24 00 	mov	r11,	36(r1)	;0x0024(r1)
    99c2:	d1 43 2b 00 	mov.b	#1,	43(r1)	;r3 As==01, 0x002b(r1)
    99c6:	08 93       	tst	r8		
    99c8:	06 20       	jnz	$+14     	;abs 0x99d6
    99ca:	07 93       	tst	r7		
    99cc:	04 20       	jnz	$+10     	;abs 0x99d6
    99ce:	06 93       	tst	r6		
    99d0:	02 20       	jnz	$+6      	;abs 0x99d6
    99d2:	0b 93       	tst	r11		
    99d4:	02 24       	jz	$+6      	;abs 0x99da
    99d6:	c1 43 2b 00 	mov.b	#0,	43(r1)	;r3 As==00, 0x002b(r1)
    99da:	0b 5b       	rla	r11		
    99dc:	0b 43       	clr	r11		
    99de:	0b 6b       	rlc	r11		
    99e0:	c1 4b 2f 00 	mov.b	r11,	47(r1)	;0x002f(r1)
    99e4:	05 4c       	mov	r12,	r5	
    99e6:	20 3c       	jmp	$+66     	;abs 0x9a28
    99e8:	5b f3       	and.b	#1,	r11	;r3 As==01
    99ea:	07 45       	mov	r5,	r7	
    99ec:	0d 24       	jz	$+28     	;abs 0x9a08
    99ee:	27 52       	add	#4,	r7	;r2 As==10
    99f0:	28 45       	mov	@r5,	r8	
    99f2:	1b 45 02 00 	mov	2(r5),	r11	;0x0002(r5)
    99f6:	81 48 1e 00 	mov	r8,	30(r1)	;0x001e(r1)
    99fa:	81 4b 20 00 	mov	r11,	32(r1)	;0x0020(r1)
    99fe:	d1 43 2b 00 	mov.b	#1,	43(r1)	;r3 As==01, 0x002b(r1)
    9a02:	08 93       	tst	r8		
    9a04:	09 20       	jnz	$+20     	;abs 0x9a18
    9a06:	06 3c       	jmp	$+14     	;abs 0x9a14
    9a08:	27 53       	incd	r7		
    9a0a:	2b 45       	mov	@r5,	r11	
    9a0c:	81 4b 1e 00 	mov	r11,	30(r1)	;0x001e(r1)
    9a10:	d1 43 2b 00 	mov.b	#1,	43(r1)	;r3 As==01, 0x002b(r1)
    9a14:	0b 93       	tst	r11		
    9a16:	02 24       	jz	$+6      	;abs 0x9a1c
    9a18:	c1 43 2b 00 	mov.b	#0,	43(r1)	;r3 As==00, 0x002b(r1)
    9a1c:	0b 5b       	rla	r11		
    9a1e:	0b 43       	clr	r11		
    9a20:	0b 6b       	rlc	r11		
    9a22:	c1 4b 2f 00 	mov.b	r11,	47(r1)	;0x002f(r1)
    9a26:	05 47       	mov	r7,	r5	
    9a28:	f1 b2 00 00 	bit.b	#8,	0(r1)	;r2 As==11, 0x0000(r1)
    9a2c:	12 24       	jz	$+38     	;abs 0x9a52
    9a2e:	c1 93 2b 00 	tst.b	43(r1)		;0x002b(r1)
    9a32:	0f 20       	jnz	$+32     	;abs 0x9a52
    9a34:	68 41       	mov.b	@r1,	r8	
    9a36:	b1 90 10 00 28 00 	cmp	#16,	40(r1)	;#0x0010, 0x0028(r1)
    9a3c:	03 20       	jnz	$+8      	;abs 0x9a44
    9a3e:	78 d0 40 00 	bis.b	#64,	r8	;#0x0040
    9a42:	05 3c       	jmp	$+12     	;abs 0x9a4e
    9a44:	b1 92 28 00 	cmp	#8,	40(r1)	;r2 As==11, 0x0028(r1)
    9a48:	04 20       	jnz	$+10     	;abs 0x9a52
    9a4a:	78 d0 20 00 	bis.b	#32,	r8	;#0x0020
    9a4e:	c1 48 00 00 	mov.b	r8,	0(r1)	;0x0000(r1)
    9a52:	68 41       	mov.b	@r1,	r8	
    9a54:	68 b2       	bit.b	#4,	r8	;r2 As==10
    9a56:	30 24       	jz	$+98     	;abs 0x9ab8
    9a58:	c1 93 2f 00 	tst.b	47(r1)		;0x002f(r1)
    9a5c:	2d 24       	jz	$+92     	;abs 0x9ab8
    9a5e:	f1 40 2d 00 02 00 	mov.b	#45,	2(r1)	;#0x002d, 0x0002(r1)
    9a64:	68 b3       	bit.b	#2,	r8	;r3 As==10
    9a66:	11 24       	jz	$+36     	;abs 0x9a8a
    9a68:	b1 e3 1e 00 	xor	#-1,	30(r1)	;r3 As==11, 0x001e(r1)
    9a6c:	b1 e3 20 00 	xor	#-1,	32(r1)	;r3 As==11, 0x0020(r1)
    9a70:	b1 e3 22 00 	xor	#-1,	34(r1)	;r3 As==11, 0x0022(r1)
    9a74:	b1 e3 24 00 	xor	#-1,	36(r1)	;r3 As==11, 0x0024(r1)
    9a78:	91 53 1e 00 	inc	30(r1)		;0x001e(r1)
    9a7c:	81 63 20 00 	adc	32(r1)		;0x0020(r1)
    9a80:	81 63 22 00 	adc	34(r1)		;0x0022(r1)
    9a84:	81 63 24 00 	adc	36(r1)		;0x0024(r1)
    9a88:	17 3c       	jmp	$+48     	;abs 0x9ab8
    9a8a:	58 b3       	bit.b	#1,	r8	;r3 As==01
    9a8c:	0f 24       	jz	$+32     	;abs 0x9aac
    9a8e:	1a 41 1e 00 	mov	30(r1),	r10	;0x001e(r1)
    9a92:	1b 41 20 00 	mov	32(r1),	r11	;0x0020(r1)
    9a96:	3a e3       	inv	r10		
    9a98:	3b e3       	inv	r11		
    9a9a:	0e 4a       	mov	r10,	r14	
    9a9c:	0f 4b       	mov	r11,	r15	
    9a9e:	1e 53       	inc	r14		
    9aa0:	0f 63       	adc	r15		
    9aa2:	81 4e 1e 00 	mov	r14,	30(r1)	;0x001e(r1)
    9aa6:	81 4f 20 00 	mov	r15,	32(r1)	;0x0020(r1)
    9aaa:	06 3c       	jmp	$+14     	;abs 0x9ab8
    9aac:	1a 41 1e 00 	mov	30(r1),	r10	;0x001e(r1)
    9ab0:	3a e3       	inv	r10		
    9ab2:	1a 53       	inc	r10		
    9ab4:	81 4a 1e 00 	mov	r10,	30(r1)	;0x001e(r1)
    9ab8:	c1 43 1b 00 	mov.b	#0,	27(r1)	;r3 As==00, 0x001b(r1)
    9abc:	68 b3       	bit.b	#2,	r8	;r3 As==10
    9abe:	6a 24       	jz	$+214    	;abs 0x9b94
    9ac0:	16 41 1e 00 	mov	30(r1),	r6	;0x001e(r1)
    9ac4:	91 41 20 00 3c 00 	mov	32(r1),	60(r1)	;0x0020(r1), 0x003c(r1)
    9aca:	18 41 22 00 	mov	34(r1),	r8	;0x0022(r1)
    9ace:	14 41 24 00 	mov	36(r1),	r4	;0x0024(r1)
    9ad2:	07 41       	mov	r1,	r7	
    9ad4:	37 50 1a 00 	add	#26,	r7	;#0x001a
    9ad8:	09 46       	mov	r6,	r9	
    9ada:	91 41 28 00 32 00 	mov	40(r1),	50(r1)	;0x0028(r1), 0x0032(r1)
    9ae0:	1b 41 28 00 	mov	40(r1),	r11	;0x0028(r1)
    9ae4:	8b 10       	swpb	r11		
    9ae6:	8b 11       	sxt	r11		
    9ae8:	8b 10       	swpb	r11		
    9aea:	8b 11       	sxt	r11		
    9aec:	81 4b 34 00 	mov	r11,	52(r1)	;0x0034(r1)
    9af0:	81 4b 36 00 	mov	r11,	54(r1)	;0x0036(r1)
    9af4:	81 4b 38 00 	mov	r11,	56(r1)	;0x0038(r1)
    9af8:	11 12 3a 00 	push	58(r1)		;0x003a(r1)
    9afc:	11 12 3a 00 	push	58(r1)		;0x003a(r1)
    9b00:	11 12 3a 00 	push	58(r1)		;0x003a(r1)
    9b04:	11 12 3a 00 	push	58(r1)		;0x003a(r1)
    9b08:	0c 49       	mov	r9,	r12	
    9b0a:	1d 41 44 00 	mov	68(r1),	r13	;0x0044(r1)
    9b0e:	0e 48       	mov	r8,	r14	
    9b10:	0f 44       	mov	r4,	r15	
    9b12:	b0 12 10 9e 	call	#0x9e10	
    9b16:	31 52       	add	#8,	r1	;r2 As==11
    9b18:	0b 4c       	mov	r12,	r11	
    9b1a:	3c 90 0a 00 	cmp	#10,	r12	;#0x000a
    9b1e:	05 34       	jge	$+12     	;abs 0x9b2a
    9b20:	7b 50 30 00 	add.b	#48,	r11	;#0x0030
    9b24:	c7 4b 00 00 	mov.b	r11,	0(r7)	;0x0000(r7)
    9b28:	0c 3c       	jmp	$+26     	;abs 0x9b42
    9b2a:	4b 4c       	mov.b	r12,	r11	
    9b2c:	d1 b3 01 00 	bit.b	#1,	1(r1)	;r3 As==01, 0x0001(r1)
    9b30:	03 24       	jz	$+8      	;abs 0x9b38
    9b32:	7a 40 37 00 	mov.b	#55,	r10	;#0x0037
    9b36:	02 3c       	jmp	$+6      	;abs 0x9b3c
    9b38:	7a 40 57 00 	mov.b	#87,	r10	;#0x0057
    9b3c:	4a 5b       	add.b	r11,	r10	
    9b3e:	c7 4a 00 00 	mov.b	r10,	0(r7)	;0x0000(r7)
    9b42:	06 47       	mov	r7,	r6	
    9b44:	36 53       	add	#-1,	r6	;r3 As==11
    9b46:	11 12 3a 00 	push	58(r1)		;0x003a(r1)
    9b4a:	11 12 3a 00 	push	58(r1)		;0x003a(r1)
    9b4e:	11 12 3a 00 	push	58(r1)		;0x003a(r1)
    9b52:	11 12 3a 00 	push	58(r1)		;0x003a(r1)
    9b56:	0c 49       	mov	r9,	r12	
    9b58:	1d 41 44 00 	mov	68(r1),	r13	;0x0044(r1)
    9b5c:	0e 48       	mov	r8,	r14	
    9b5e:	0f 44       	mov	r4,	r15	
    9b60:	b0 12 ea 9d 	call	#0x9dea	
    9b64:	31 52       	add	#8,	r1	;r2 As==11
    9b66:	09 4c       	mov	r12,	r9	
    9b68:	81 4d 3c 00 	mov	r13,	60(r1)	;0x003c(r1)
    9b6c:	08 4e       	mov	r14,	r8	
    9b6e:	04 4f       	mov	r15,	r4	
    9b70:	37 53       	add	#-1,	r7	;r3 As==11
    9b72:	0c 93       	tst	r12		
    9b74:	b2 23       	jnz	$-154    	;abs 0x9ada
    9b76:	0d 93       	tst	r13		
    9b78:	b0 23       	jnz	$-158    	;abs 0x9ada
    9b7a:	0e 93       	tst	r14		
    9b7c:	ae 23       	jnz	$-162    	;abs 0x9ada
    9b7e:	0f 93       	tst	r15		
    9b80:	ac 23       	jnz	$-166    	;abs 0x9ada
    9b82:	81 43 1e 00 	mov	#0,	30(r1)	;r3 As==00, 0x001e(r1)
    9b86:	81 43 20 00 	mov	#0,	32(r1)	;r3 As==00, 0x0020(r1)
    9b8a:	81 43 22 00 	mov	#0,	34(r1)	;r3 As==00, 0x0022(r1)
    9b8e:	81 43 24 00 	mov	#0,	36(r1)	;r3 As==00, 0x0024(r1)
    9b92:	6c 3c       	jmp	$+218    	;abs 0x9c6c
    9b94:	58 b3       	bit.b	#1,	r8	;r3 As==01
    9b96:	3e 24       	jz	$+126    	;abs 0x9c14
    9b98:	14 41 1e 00 	mov	30(r1),	r4	;0x001e(r1)
    9b9c:	17 41 20 00 	mov	32(r1),	r7	;0x0020(r1)
    9ba0:	08 41       	mov	r1,	r8	
    9ba2:	38 50 1a 00 	add	#26,	r8	;#0x001a
    9ba6:	19 41 28 00 	mov	40(r1),	r9	;0x0028(r1)
    9baa:	89 10       	swpb	r9		
    9bac:	89 11       	sxt	r9		
    9bae:	89 10       	swpb	r9		
    9bb0:	89 11       	sxt	r9		
    9bb2:	1c 41 28 00 	mov	40(r1),	r12	;0x0028(r1)
    9bb6:	0d 49       	mov	r9,	r13	
    9bb8:	0e 44       	mov	r4,	r14	
    9bba:	0f 47       	mov	r7,	r15	
    9bbc:	b0 12 c0 87 	call	#0x87c0	
    9bc0:	0b 4e       	mov	r14,	r11	
    9bc2:	3e 90 0a 00 	cmp	#10,	r14	;#0x000a
    9bc6:	05 34       	jge	$+12     	;abs 0x9bd2
    9bc8:	7b 50 30 00 	add.b	#48,	r11	;#0x0030
    9bcc:	c8 4b 00 00 	mov.b	r11,	0(r8)	;0x0000(r8)
    9bd0:	0c 3c       	jmp	$+26     	;abs 0x9bea
    9bd2:	4b 4e       	mov.b	r14,	r11	
    9bd4:	d1 b3 01 00 	bit.b	#1,	1(r1)	;r3 As==01, 0x0001(r1)
    9bd8:	03 24       	jz	$+8      	;abs 0x9be0
    9bda:	7a 40 37 00 	mov.b	#55,	r10	;#0x0037
    9bde:	02 3c       	jmp	$+6      	;abs 0x9be4
    9be0:	7a 40 57 00 	mov.b	#87,	r10	;#0x0057
    9be4:	4a 5b       	add.b	r11,	r10	
    9be6:	c8 4a 00 00 	mov.b	r10,	0(r8)	;0x0000(r8)
    9bea:	06 48       	mov	r8,	r6	
    9bec:	36 53       	add	#-1,	r6	;r3 As==11
    9bee:	1c 41 28 00 	mov	40(r1),	r12	;0x0028(r1)
    9bf2:	0d 49       	mov	r9,	r13	
    9bf4:	0e 44       	mov	r4,	r14	
    9bf6:	0f 47       	mov	r7,	r15	
    9bf8:	b0 12 8a 87 	call	#0x878a	
    9bfc:	04 4e       	mov	r14,	r4	
    9bfe:	07 4f       	mov	r15,	r7	
    9c00:	38 53       	add	#-1,	r8	;r3 As==11
    9c02:	0e 93       	tst	r14		
    9c04:	d0 23       	jnz	$-94     	;abs 0x9ba6
    9c06:	0f 93       	tst	r15		
    9c08:	ce 23       	jnz	$-98     	;abs 0x9ba6
    9c0a:	81 43 1e 00 	mov	#0,	30(r1)	;r3 As==00, 0x001e(r1)
    9c0e:	81 43 20 00 	mov	#0,	32(r1)	;r3 As==00, 0x0020(r1)
    9c12:	2c 3c       	jmp	$+90     	;abs 0x9c6c
    9c14:	17 41 1e 00 	mov	30(r1),	r7	;0x001e(r1)
    9c18:	08 41       	mov	r1,	r8	
    9c1a:	38 50 1a 00 	add	#26,	r8	;#0x001a
    9c1e:	1e 41 28 00 	mov	40(r1),	r14	;0x0028(r1)
    9c22:	0f 47       	mov	r7,	r15	
    9c24:	b0 12 82 87 	call	#0x8782	
    9c28:	0d 4f       	mov	r15,	r13	
    9c2a:	3f 90 0a 00 	cmp	#10,	r15	;#0x000a
    9c2e:	05 34       	jge	$+12     	;abs 0x9c3a
    9c30:	7d 50 30 00 	add.b	#48,	r13	;#0x0030
    9c34:	c8 4d 00 00 	mov.b	r13,	0(r8)	;0x0000(r8)
    9c38:	0c 3c       	jmp	$+26     	;abs 0x9c52
    9c3a:	4d 4f       	mov.b	r15,	r13	
    9c3c:	d1 b3 01 00 	bit.b	#1,	1(r1)	;r3 As==01, 0x0001(r1)
    9c40:	03 24       	jz	$+8      	;abs 0x9c48
    9c42:	7c 40 37 00 	mov.b	#55,	r12	;#0x0037
    9c46:	02 3c       	jmp	$+6      	;abs 0x9c4c
    9c48:	7c 40 57 00 	mov.b	#87,	r12	;#0x0057
    9c4c:	4c 5d       	add.b	r13,	r12	
    9c4e:	c8 4c 00 00 	mov.b	r12,	0(r8)	;0x0000(r8)
    9c52:	06 48       	mov	r8,	r6	
    9c54:	36 53       	add	#-1,	r6	;r3 As==11
    9c56:	1e 41 28 00 	mov	40(r1),	r14	;0x0028(r1)
    9c5a:	0f 47       	mov	r7,	r15	
    9c5c:	b0 12 68 87 	call	#0x8768	
    9c60:	07 4f       	mov	r15,	r7	
    9c62:	38 53       	add	#-1,	r8	;r3 As==11
    9c64:	0f 93       	tst	r15		
    9c66:	db 23       	jnz	$-72     	;abs 0x9c1e
    9c68:	81 43 1e 00 	mov	#0,	30(r1)	;r3 As==00, 0x001e(r1)
    9c6c:	b1 90 0a 00 28 00 	cmp	#10,	40(r1)	;#0x000a, 0x0028(r1)
    9c72:	02 24       	jz	$+6      	;abs 0x9c78
    9c74:	c1 43 02 00 	mov.b	#0,	2(r1)	;r3 As==00, 0x0002(r1)
    9c78:	c1 93 2e 00 	tst.b	46(r1)		;0x002e(r1)
    9c7c:	2a 24       	jz	$+86     	;abs 0x9cd2
    9c7e:	0f 41       	mov	r1,	r15	
    9c80:	3f 50 1c 00 	add	#28,	r15	;#0x001c
    9c84:	81 4f 42 00 	mov	r15,	66(r1)	;0x0042(r1)
    9c88:	1a 41 1c 00 	mov	28(r1),	r10	;0x001c(r1)
    9c8c:	8a 10       	swpb	r10		
    9c8e:	8a 11       	sxt	r10		
    9c90:	8a 10       	swpb	r10		
    9c92:	8a 11       	sxt	r10		
    9c94:	81 4a 44 00 	mov	r10,	68(r1)	;0x0044(r1)
    9c98:	81 46 46 00 	mov	r6,	70(r1)	;0x0046(r1)
    9c9c:	0a 46       	mov	r6,	r10	
    9c9e:	8a 10       	swpb	r10		
    9ca0:	8a 11       	sxt	r10		
    9ca2:	8a 10       	swpb	r10		
    9ca4:	8a 11       	sxt	r10		
    9ca6:	81 4a 48 00 	mov	r10,	72(r1)	;0x0048(r1)
    9caa:	1c 41 42 00 	mov	66(r1),	r12	;0x0042(r1)
    9cae:	1d 41 44 00 	mov	68(r1),	r13	;0x0044(r1)
    9cb2:	1c 81 46 00 	sub	70(r1),	r12	;0x0046(r1)
    9cb6:	1d 71 48 00 	subc	72(r1),	r13	;0x0048(r1)
    9cba:	2c 83       	decd	r12		
    9cbc:	1c 91 26 00 	cmp	38(r1),	r12	;0x0026(r1)
    9cc0:	0e 2c       	jc	$+30     	;abs 0x9cde
    9cc2:	e1 d3 01 00 	bis.b	#2,	1(r1)	;r3 As==10, 0x0001(r1)
    9cc6:	5e 41 26 00 	mov.b	38(r1),	r14	;0x0026(r1)
    9cca:	4e 8c       	sub.b	r12,	r14	
    9ccc:	c1 4e 03 00 	mov.b	r14,	3(r1)	;0x0003(r1)
    9cd0:	06 3c       	jmp	$+14     	;abs 0x9cde
    9cd2:	c1 93 2a 00 	tst.b	42(r1)		;0x002a(r1)
    9cd6:	03 24       	jz	$+8      	;abs 0x9cde
    9cd8:	91 41 26 00 30 00 	mov	38(r1),	48(r1)	;0x0026(r1), 0x0030(r1)
    9cde:	11 12 04 00 	push	4(r1)		;0x0004(r1)
    9ce2:	11 12 04 00 	push	4(r1)		;0x0004(r1)
    9ce6:	1d 41 34 00 	mov	52(r1),	r13	;0x0034(r1)
    9cea:	0e 46       	mov	r6,	r14	
    9cec:	1e 53       	inc	r14		
    9cee:	1f 41 3e 00 	mov	62(r1),	r15	;0x003e(r1)
    9cf2:	b0 12 2a 95 	call	#0x952a	
    9cf6:	21 52       	add	#4,	r1	;r2 As==10
    9cf8:	81 5f 2c 00 	add	r15,	44(r1)	;0x002c(r1)
    9cfc:	0d 3c       	jmp	$+28     	;abs 0x9d18
    9cfe:	7f 49       	mov.b	@r9+,	r15	
    9d00:	8f 11       	sxt	r15		
    9d02:	91 12 3c 00 	call	60(r1)		;0x003c(r1)
    9d06:	0e 49       	mov	r9,	r14	
    9d08:	0e 58       	add	r8,	r14	
    9d0a:	19 91 40 00 	cmp	64(r1),	r9	;0x0040(r1)
    9d0e:	f7 2b       	jnc	$-16     	;abs 0x9cfe
    9d10:	81 49 3e 00 	mov	r9,	62(r1)	;0x003e(r1)
    9d14:	81 4e 2c 00 	mov	r14,	44(r1)	;0x002c(r1)
    9d18:	07 43       	clr	r7		
    9d1a:	0e 3c       	jmp	$+30     	;abs 0x9d38
    9d1c:	91 41 26 00 30 00 	mov	38(r1),	48(r1)	;0x0026(r1), 0x0030(r1)
    9d22:	d1 43 2e 00 	mov.b	#1,	46(r1)	;r3 As==01, 0x002e(r1)
    9d26:	c1 43 2a 00 	mov.b	#0,	42(r1)	;r3 As==00, 0x002a(r1)
    9d2a:	03 3c       	jmp	$+8      	;abs 0x9d32
    9d2c:	05 4e       	mov	r14,	r5	
    9d2e:	d1 43 2a 00 	mov.b	#1,	42(r1)	;r3 As==01, 0x002a(r1)
    9d32:	81 43 26 00 	mov	#0,	38(r1)	;r3 As==00, 0x0026(r1)
    9d36:	17 43       	mov	#1,	r7	;r3 As==01
    9d38:	16 41 40 00 	mov	64(r1),	r6	;0x0040(r1)
    9d3c:	6e 46       	mov.b	@r6,	r14	
    9d3e:	4e 93       	tst.b	r14		
    9d40:	02 24       	jz	$+6      	;abs 0x9d46
    9d42:	30 40 0e 97 	br	#0x970e	
    9d46:	1f 41 2c 00 	mov	44(r1),	r15	;0x002c(r1)
    9d4a:	31 50 4a 00 	add	#74,	r1	;#0x004a
    9d4e:	34 41       	pop	r4		
    9d50:	35 41       	pop	r5		
    9d52:	36 41       	pop	r6		
    9d54:	37 41       	pop	r7		
    9d56:	38 41       	pop	r8		
    9d58:	39 41       	pop	r9		
    9d5a:	3a 41       	pop	r10		
    9d5c:	3b 41       	pop	r11		
    9d5e:	30 41       	ret			

00009d60 <puts>:
    9d60:	0b 12       	push	r11		
    9d62:	0b 4f       	mov	r15,	r11	
    9d64:	6f 4b       	mov.b	@r11,	r15	
    9d66:	4f 93       	tst.b	r15		
    9d68:	06 24       	jz	$+14     	;abs 0x9d76
    9d6a:	1b 53       	inc	r11		
    9d6c:	8f 11       	sxt	r15		
    9d6e:	b0 12 cc 82 	call	#0x82cc	
    9d72:	0f 93       	tst	r15		
    9d74:	f7 37       	jge	$-16     	;abs 0x9d64
    9d76:	cb 93 00 00 	tst.b	0(r11)		;0x0000(r11)
    9d7a:	05 20       	jnz	$+12     	;abs 0x9d86
    9d7c:	3f 40 0a 00 	mov	#10,	r15	;#0x000a
    9d80:	b0 12 cc 82 	call	#0x82cc	
    9d84:	01 3c       	jmp	$+4      	;abs 0x9d88
    9d86:	3f 43       	mov	#-1,	r15	;r3 As==11
    9d88:	3b 41       	pop	r11		
    9d8a:	30 41       	ret			

00009d8c <__xabi_udivmod64>:
    9d8c:	07 12       	push	r7		
    9d8e:	06 12       	push	r6		
    9d90:	05 12       	push	r5		
    9d92:	04 12       	push	r4		
    9d94:	30 12 40 00 	push	#64		;#0x0040
    9d98:	04 48       	mov	r8,	r4	
    9d9a:	05 49       	mov	r9,	r5	
    9d9c:	06 4a       	mov	r10,	r6	
    9d9e:	07 4b       	mov	r11,	r7	
    9da0:	08 43       	clr	r8		
    9da2:	09 43       	clr	r9		
    9da4:	0a 43       	clr	r10		
    9da6:	0b 43       	clr	r11		
    9da8:	0c 5c       	rla	r12		
    9daa:	0d 6d       	rlc	r13		
    9dac:	0e 6e       	rlc	r14		
    9dae:	0f 6f       	rlc	r15		
    9db0:	08 68       	rlc	r8		
    9db2:	09 69       	rlc	r9		
    9db4:	0a 6a       	rlc	r10		
    9db6:	0b 6b       	rlc	r11		
    9db8:	0b 97       	cmp	r7,	r11	
    9dba:	0e 28       	jnc	$+30     	;abs 0x9dd8
    9dbc:	08 20       	jnz	$+18     	;abs 0x9dce
    9dbe:	0a 96       	cmp	r6,	r10	
    9dc0:	0b 28       	jnc	$+24     	;abs 0x9dd8
    9dc2:	05 20       	jnz	$+12     	;abs 0x9dce
    9dc4:	09 95       	cmp	r5,	r9	
    9dc6:	08 28       	jnc	$+18     	;abs 0x9dd8
    9dc8:	02 20       	jnz	$+6      	;abs 0x9dce
    9dca:	08 94       	cmp	r4,	r8	
    9dcc:	05 28       	jnc	$+12     	;abs 0x9dd8
    9dce:	08 84       	sub	r4,	r8	
    9dd0:	09 75       	subc	r5,	r9	
    9dd2:	0a 76       	subc	r6,	r10	
    9dd4:	0b 77       	subc	r7,	r11	
    9dd6:	1c d3       	bis	#1,	r12	;r3 As==01
    9dd8:	91 83 00 00 	dec	0(r1)		;0x0000(r1)
    9ddc:	e5 23       	jnz	$-52     	;abs 0x9da8
    9dde:	21 53       	incd	r1		
    9de0:	34 41       	pop	r4		
    9de2:	35 41       	pop	r5		
    9de4:	36 41       	pop	r6		
    9de6:	37 41       	pop	r7		
    9de8:	30 41       	ret			

00009dea <__udivdi3>:
    9dea:	0b 12       	push	r11		
    9dec:	0a 12       	push	r10		
    9dee:	09 12       	push	r9		
    9df0:	08 12       	push	r8		
    9df2:	18 41 0a 00 	mov	10(r1),	r8	;0x000a(r1)
    9df6:	19 41 0c 00 	mov	12(r1),	r9	;0x000c(r1)
    9dfa:	1a 41 0e 00 	mov	14(r1),	r10	;0x000e(r1)
    9dfe:	1b 41 10 00 	mov	16(r1),	r11	;0x0010(r1)
    9e02:	b0 12 8c 9d 	call	#0x9d8c	
    9e06:	38 41       	pop	r8		
    9e08:	39 41       	pop	r9		
    9e0a:	3a 41       	pop	r10		
    9e0c:	3b 41       	pop	r11		
    9e0e:	30 41       	ret			

00009e10 <__umoddi3>:
    9e10:	0b 12       	push	r11		
    9e12:	0a 12       	push	r10		
    9e14:	09 12       	push	r9		
    9e16:	08 12       	push	r8		
    9e18:	18 41 0a 00 	mov	10(r1),	r8	;0x000a(r1)
    9e1c:	19 41 0c 00 	mov	12(r1),	r9	;0x000c(r1)
    9e20:	1a 41 0e 00 	mov	14(r1),	r10	;0x000e(r1)
    9e24:	1b 41 10 00 	mov	16(r1),	r11	;0x0010(r1)
    9e28:	b0 12 8c 9d 	call	#0x9d8c	
    9e2c:	0c 48       	mov	r8,	r12	
    9e2e:	0d 49       	mov	r9,	r13	
    9e30:	0e 4a       	mov	r10,	r14	
    9e32:	0f 4b       	mov	r11,	r15	
    9e34:	38 41       	pop	r8		
    9e36:	39 41       	pop	r9		
    9e38:	3a 41       	pop	r10		
    9e3a:	3b 41       	pop	r11		
    9e3c:	30 41       	ret			

00009e3e <__udivmoddi4>:
    9e3e:	0b 12       	push	r11		
    9e40:	0a 12       	push	r10		
    9e42:	09 12       	push	r9		
    9e44:	08 12       	push	r8		
    9e46:	07 12       	push	r7		
    9e48:	18 41 0c 00 	mov	12(r1),	r8	;0x000c(r1)
    9e4c:	19 41 0e 00 	mov	14(r1),	r9	;0x000e(r1)
    9e50:	1a 41 10 00 	mov	16(r1),	r10	;0x0010(r1)
    9e54:	1b 41 12 00 	mov	18(r1),	r11	;0x0012(r1)
    9e58:	b0 12 8c 9d 	call	#0x9d8c	
    9e5c:	17 41 14 00 	mov	20(r1),	r7	;0x0014(r1)
    9e60:	87 48 00 00 	mov	r8,	0(r7)	;0x0000(r7)
    9e64:	87 49 02 00 	mov	r9,	2(r7)	;0x0002(r7)
    9e68:	87 4a 04 00 	mov	r10,	4(r7)	;0x0004(r7)
    9e6c:	87 4b 06 00 	mov	r11,	6(r7)	;0x0006(r7)
    9e70:	37 41       	pop	r7		
    9e72:	38 41       	pop	r8		
    9e74:	39 41       	pop	r9		
    9e76:	3a 41       	pop	r10		
    9e78:	3b 41       	pop	r11		
    9e7a:	30 41       	ret			

00009e7c <_unexpected_>:
    9e7c:	00 13       	reti			

Disassembly of section .vectors:

0000ffe0 <__ivtbl_16>:
    ffe0:	3e 45 28 84 7c 82 2a 82 2e 83 bc 81 9e 81 d6 84     >E(.|.*.........
    fff0:	9a 86 3e 86 3e 45 3e 45 00 82 e2 81 3e 45 00 40     ..>.>E>E....>E.@
